

Microchip MPLAB XC8 Assembler V2.31 build 20201012212115 
                                                                                               Fri Jun 04 01:16:20 2021

Microchip MPLAB XC8 C Compiler v2.31 (Free license) build 20201012212115 Og1 
     1                           	processor	16F887
     2                           	pagewidth 120
     3                           	opt	flic
     4                           	psect	strings,global,class=STRING,delta=2,noexec
     5                           	psect	stringtext,global,reloc=256,class=STRCODE,delta=2,noexec
     6                           	psect	cinit,global,class=CODE,merge=1,delta=2
     7                           	psect	bssCOMMON,global,class=COMMON,space=1,delta=1,noexec
     8                           	psect	bssBANK0,global,class=BANK0,space=1,delta=1,noexec
     9                           	psect	clrtext,global,class=CODE,delta=2
    10                           	psect	cstackCOMMON,global,class=COMMON,space=1,delta=1,noexec
    11                           	psect	cstackBANK0,global,class=BANK0,space=1,delta=1,noexec
    12                           	psect	maintext,global,class=CODE,split=1,delta=2
    13                           	psect	text1,local,class=CODE,merge=1,delta=2
    14                           	psect	text2,local,class=CODE,merge=1,delta=2
    15                           	psect	text3,local,class=CODE,merge=1,delta=2
    16                           	psect	intentry,global,class=CODE,delta=2
    17                           	psect	text4,local,class=CODE,merge=1,delta=2
    18                           	psect	text5,local,class=CODE,merge=1,delta=2
    19                           	psect	text6,local,class=CODE,merge=1,delta=2
    20                           	psect	text7,local,class=CODE,merge=1,delta=2,group=1
    21                           	psect	text8,local,class=CODE,merge=1,delta=2
    22                           	psect	text9,local,class=CODE,merge=1,delta=2
    23                           	psect	text10,local,class=CODE,merge=1,delta=2
    24                           	psect	text11,local,class=CODE,merge=1,delta=2
    25                           	psect	text12,local,class=CODE,merge=1,delta=2
    26                           	psect	text13,local,class=CODE,merge=1,delta=2
    27                           	psect	text14,local,class=CODE,merge=1,delta=2
    28                           	psect	text15,local,class=CODE,merge=1,delta=2
    29                           	psect	text16,local,class=CODE,merge=1,delta=2
    30                           	psect	text17,local,class=CODE,merge=1,delta=2
    31                           	psect	config,global,abs,ovrld,class=CONFIG,space=4,delta=2,noexec
    32                           	dabs	1,0x7E,2
    33  0000                     
    34                           ; Version 2.20
    35                           ; Generated 12/02/2020 GMT
    36                           ; 
    37                           ; Copyright © 2020, Microchip Technology Inc. and its subsidiaries ("Microchip")
    38                           ; All rights reserved.
    39                           ; 
    40                           ; This software is developed by Microchip Technology Inc. and its subsidiaries ("Microch
      +                          ip").
    41                           ; 
    42                           ; Redistribution and use in source and binary forms, with or without modification, are
    43                           ; permitted provided that the following conditions are met:
    44                           ; 
    45                           ;     1. Redistributions of source code must retain the above copyright notice, this lis
      +                          t of
    46                           ;        conditions and the following disclaimer.
    47                           ; 
    48                           ;     2. Redistributions in binary form must reproduce the above copyright notice, this 
      +                          list
    49                           ;        of conditions and the following disclaimer in the documentation and/or other
    50                           ;        materials provided with the distribution.
    51                           ; 
    52                           ;     3. Microchip's name may not be used to endorse or promote products derived from th
      +                          is
    53                           ;        software without specific prior written permission.
    54                           ; 
    55                           ; THIS SOFTWARE IS PROVIDED BY MICROCHIP "AS IS" AND ANY EXPRESS OR IMPLIED WARRANTIES,
    56                           ; INCLUDING, BUT NOT LIMITED TO, THE IMPLIED WARRANTIES OF MERCHANTABILITY AND FITNESS F
      +                          OR
    57                           ; PURPOSE ARE DISCLAIMED.  IN NO EVENT SHALL MICROCHIP BE LIABLE FOR ANY DIRECT, INDIREC
      +                          T,
    58                           ; INCIDENTAL, SPECIAL, EXEMPLARY, OR CONSEQUENTIAL DAMAGES (INCLUDING BUT NOT LIMITED TO
    59                           ; PROCUREMENT OF SUBSTITUTE GOODS OR SERVICES; LOSS OF USE, DATA OR PROFITS; OR BUSINESS
    60                           ; INTERRUPTION) HOWSOEVER CAUSED AND ON ANY THEORY OF LIABILITY, WHETHER IN CONTRACT, ST
      +                          RICT
    61                           ; LIABILITY, OR TORT (INCLUDING NEGLIGENCE OR OTHERWISE) ARISING IN ANY WAY OUT OF THE U
      +                          SE OF
    62                           ; THIS SOFTWARE, EVEN IF ADVISED OF THE POSSIBILITY OF SUCH DAMAGE.
    63                           ; 
    64                           ; 
    65                           ; Code-generator required, PIC16F887 Definitions
    66                           ; 
    67                           ; SFR Addresses
    68  0000                     	;# 
    69  0001                     	;# 
    70  0002                     	;# 
    71  0003                     	;# 
    72  0004                     	;# 
    73  0005                     	;# 
    74  0006                     	;# 
    75  0007                     	;# 
    76  0008                     	;# 
    77  0009                     	;# 
    78  000A                     	;# 
    79  000B                     	;# 
    80  000C                     	;# 
    81  000D                     	;# 
    82  000E                     	;# 
    83  000E                     	;# 
    84  000F                     	;# 
    85  0010                     	;# 
    86  0011                     	;# 
    87  0012                     	;# 
    88  0013                     	;# 
    89  0014                     	;# 
    90  0015                     	;# 
    91  0015                     	;# 
    92  0016                     	;# 
    93  0017                     	;# 
    94  0018                     	;# 
    95  0019                     	;# 
    96  001A                     	;# 
    97  001B                     	;# 
    98  001B                     	;# 
    99  001C                     	;# 
   100  001D                     	;# 
   101  001E                     	;# 
   102  001F                     	;# 
   103  0081                     	;# 
   104  0085                     	;# 
   105  0086                     	;# 
   106  0087                     	;# 
   107  0088                     	;# 
   108  0089                     	;# 
   109  008C                     	;# 
   110  008D                     	;# 
   111  008E                     	;# 
   112  008F                     	;# 
   113  0090                     	;# 
   114  0091                     	;# 
   115  0092                     	;# 
   116  0093                     	;# 
   117  0093                     	;# 
   118  0093                     	;# 
   119  0094                     	;# 
   120  0095                     	;# 
   121  0096                     	;# 
   122  0097                     	;# 
   123  0098                     	;# 
   124  0099                     	;# 
   125  009A                     	;# 
   126  009B                     	;# 
   127  009C                     	;# 
   128  009D                     	;# 
   129  009E                     	;# 
   130  009F                     	;# 
   131  0105                     	;# 
   132  0107                     	;# 
   133  0108                     	;# 
   134  0109                     	;# 
   135  010C                     	;# 
   136  010C                     	;# 
   137  010D                     	;# 
   138  010E                     	;# 
   139  010F                     	;# 
   140  0185                     	;# 
   141  0187                     	;# 
   142  0188                     	;# 
   143  0189                     	;# 
   144  018C                     	;# 
   145  018D                     	;# 
   146  0000                     	;# 
   147  0001                     	;# 
   148  0002                     	;# 
   149  0003                     	;# 
   150  0004                     	;# 
   151  0005                     	;# 
   152  0006                     	;# 
   153  0007                     	;# 
   154  0008                     	;# 
   155  0009                     	;# 
   156  000A                     	;# 
   157  000B                     	;# 
   158  000C                     	;# 
   159  000D                     	;# 
   160  000E                     	;# 
   161  000E                     	;# 
   162  000F                     	;# 
   163  0010                     	;# 
   164  0011                     	;# 
   165  0012                     	;# 
   166  0013                     	;# 
   167  0014                     	;# 
   168  0015                     	;# 
   169  0015                     	;# 
   170  0016                     	;# 
   171  0017                     	;# 
   172  0018                     	;# 
   173  0019                     	;# 
   174  001A                     	;# 
   175  001B                     	;# 
   176  001B                     	;# 
   177  001C                     	;# 
   178  001D                     	;# 
   179  001E                     	;# 
   180  001F                     	;# 
   181  0081                     	;# 
   182  0085                     	;# 
   183  0086                     	;# 
   184  0087                     	;# 
   185  0088                     	;# 
   186  0089                     	;# 
   187  008C                     	;# 
   188  008D                     	;# 
   189  008E                     	;# 
   190  008F                     	;# 
   191  0090                     	;# 
   192  0091                     	;# 
   193  0092                     	;# 
   194  0093                     	;# 
   195  0093                     	;# 
   196  0093                     	;# 
   197  0094                     	;# 
   198  0095                     	;# 
   199  0096                     	;# 
   200  0097                     	;# 
   201  0098                     	;# 
   202  0099                     	;# 
   203  009A                     	;# 
   204  009B                     	;# 
   205  009C                     	;# 
   206  009D                     	;# 
   207  009E                     	;# 
   208  009F                     	;# 
   209  0105                     	;# 
   210  0107                     	;# 
   211  0108                     	;# 
   212  0109                     	;# 
   213  010C                     	;# 
   214  010C                     	;# 
   215  010D                     	;# 
   216  010E                     	;# 
   217  010F                     	;# 
   218  0185                     	;# 
   219  0187                     	;# 
   220  0188                     	;# 
   221  0189                     	;# 
   222  018C                     	;# 
   223  018D                     	;# 
   224  001A                     _RCREG	set	26
   225  0019                     _TXREG	set	25
   226  000D                     _PIR2bits	set	13
   227  0008                     _PORTDbits	set	8
   228  0018                     _RCSTAbits	set	24
   229  0012                     _T2CONbits	set	18
   230  001D                     _CCP2CONbits	set	29
   231  0017                     _CCP1CONbits	set	23
   232  0008                     _PORTD	set	8
   233  0007                     _PORTC	set	7
   234  0006                     _PORTB	set	6
   235  0005                     _PORTA	set	5
   236  000B                     _INTCONbits	set	11
   237  0006                     _PORTBbits	set	6
   238  0015                     _CCPR1L	set	21
   239  001E                     _ADRESH	set	30
   240  001B                     _CCPR2L	set	27
   241  001F                     _ADCON0bits	set	31
   242  000C                     _PIR1bits	set	12
   243  0065                     _RCIF	set	101
   244  0064                     _TXIF	set	100
   245  0058                     _RBIF	set	88
   246  009A                     _SPBRGH	set	154
   247  0099                     _SPBRG	set	153
   248  0098                     _TXSTAbits	set	152
   249  0092                     _PR2	set	146
   250  0087                     _TRISCbits	set	135
   251  009F                     _ADCON1bits	set	159
   252  008C                     _PIE1bits	set	140
   253  008F                     _OSCCONbits	set	143
   254  0096                     _IOCBbits	set	150
   255  0095                     _WPUBbits	set	149
   256  0081                     _OPTION_REGbits	set	129
   257  0088                     _TRISDbits	set	136
   258  0086                     _TRISBbits	set	134
   259  0085                     _TRISAbits	set	133
   260  010C                     _EEDATA	set	268
   261  010C                     _EEDAT	set	268
   262  010D                     _EEADR	set	269
   263  018D                     _EECON2	set	397
   264  018C                     _EECON1bits	set	396
   265  0187                     _BAUDCTLbits	set	391
   266  0189                     _ANSELH	set	393
   267  0188                     _ANSEL	set	392
   268                           
   269                           	psect	strings
   270  0800                     __pstrings:
   271  0800                     stringtab:
   272  0800                     __stringtab:
   273                           
   274                           ;	String table - string pointers are 2 bytes each
   275  0800  1BFF               	btfsc	btemp+1,7
   276  0801  280A               	ljmp	stringcode
   277  0802  1383               	bcf	3,7
   278  0803  187F               	btfsc	btemp+1,0
   279  0804  1783               	bsf	3,7
   280  0805  0800               	movf	0,w
   281  0806  0A84               	incf	4,f
   282  0807  1903               	skipnz
   283  0808  0AFF               	incf	btemp+1,f
   284  0809  0008               	return
   285  080A                     stringcode:
   286  080A  087F               	movf	btemp+1,w
   287  080B  397F               	andlw	127
   288  080C  008A               	movwf	10
   289  080D  0804               	movf	4,w
   290  080E  0A84               	incf	4,f
   291  080F  1903               	skipnz
   292  0810  0AFF               	incf	btemp+1,f
   293  0811  0082               	movwf	2
   294  0812                     __stringbase:
   295  0812                     __end_of__stringtab:
   296                           
   297                           	psect	stringtext
   298  0600                     __pstringtext:
   299  0600                     STR_2:
   300  0600  340D               	retlw	13
   301  0601  3420               	retlw	32	;' '
   302  0602  3445               	retlw	69	;'E'
   303  0603  346C               	retlw	108	;'l'
   304  0604  3469               	retlw	105	;'i'
   305  0605  3467               	retlw	103	;'g'
   306  0606  3461               	retlw	97	;'a'
   307  0607  3420               	retlw	32	;' '
   308  0608  3475               	retlw	117	;'u'
   309  0609  346E               	retlw	110	;'n'
   310  060A  3461               	retlw	97	;'a'
   311  060B  3420               	retlw	32	;' '
   312  060C  3464               	retlw	100	;'d'
   313  060D  3465               	retlw	101	;'e'
   314  060E  3420               	retlw	32	;' '
   315  060F  346C               	retlw	108	;'l'
   316  0610  3461               	retlw	97	;'a'
   317  0611  3473               	retlw	115	;'s'
   318  0612  3420               	retlw	32	;' '
   319  0613  3473               	retlw	115	;'s'
   320  0614  3469               	retlw	105	;'i'
   321  0615  3467               	retlw	103	;'g'
   322  0616  3475               	retlw	117	;'u'
   323  0617  3469               	retlw	105	;'i'
   324  0618  3465               	retlw	101	;'e'
   325  0619  346E               	retlw	110	;'n'
   326  061A  3474               	retlw	116	;'t'
   327  061B  3465               	retlw	101	;'e'
   328  061C  3473               	retlw	115	;'s'
   329  061D  3420               	retlw	32	;' '
   330  061E  346F               	retlw	111	;'o'
   331  061F  3470               	retlw	112	;'p'
   332  0620  3463               	retlw	99	;'c'
   333  0621  3469               	retlw	105	;'i'
   334  0622  346F               	retlw	111	;'o'
   335  0623  346E               	retlw	110	;'n'
   336  0624  3465               	retlw	101	;'e'
   337  0625  3473               	retlw	115	;'s'
   338  0626  343A               	retlw	58	;':'
   339  0627  3420               	retlw	32	;' '
   340  0628  340D               	retlw	13
   341  0629  3400               	retlw	0
   342  062A                     STR_1:
   343  062A  340D               	retlw	13
   344  062B  3420               	retlw	32	;' '
   345  062C  342D               	retlw	45	;'-'
   346  062D  342D               	retlw	45	;'-'
   347  062E  342D               	retlw	45	;'-'
   348  062F  342D               	retlw	45	;'-'
   349  0630  342D               	retlw	45	;'-'
   350  0631  342D               	retlw	45	;'-'
   351  0632  342D               	retlw	45	;'-'
   352  0633  342D               	retlw	45	;'-'
   353  0634  342D               	retlw	45	;'-'
   354  0635  342D               	retlw	45	;'-'
   355  0636  342D               	retlw	45	;'-'
   356  0637  3442               	retlw	66	;'B'
   357  0638  3469               	retlw	105	;'i'
   358  0639  3465               	retlw	101	;'e'
   359  063A  346E               	retlw	110	;'n'
   360  063B  3476               	retlw	118	;'v'
   361  063C  3465               	retlw	101	;'e'
   362  063D  346E               	retlw	110	;'n'
   363  063E  3469               	retlw	105	;'i'
   364  063F  3464               	retlw	100	;'d'
   365  0640  346F               	retlw	111	;'o'
   366  0641  342D               	retlw	45	;'-'
   367  0642  342D               	retlw	45	;'-'
   368  0643  342D               	retlw	45	;'-'
   369  0644  342D               	retlw	45	;'-'
   370  0645  342D               	retlw	45	;'-'
   371  0646  342D               	retlw	45	;'-'
   372  0647  342D               	retlw	45	;'-'
   373  0648  342D               	retlw	45	;'-'
   374  0649  342D               	retlw	45	;'-'
   375  064A  342D               	retlw	45	;'-'
   376  064B  342D               	retlw	45	;'-'
   377  064C  3420               	retlw	32	;' '
   378  064D  340D               	retlw	13
   379  064E  3400               	retlw	0
   380  064F                     STR_3:
   381  064F  3420               	retlw	32	;' '
   382  0650  3431               	retlw	49	;'1'
   383  0651  342E               	retlw	46	;'.'
   384  0652  3420               	retlw	32	;' '
   385  0653  344D               	retlw	77	;'M'
   386  0654  346F               	retlw	111	;'o'
   387  0655  3476               	retlw	118	;'v'
   388  0656  3465               	retlw	101	;'e'
   389  0657  3472               	retlw	114	;'r'
   390  0658  3420               	retlw	32	;' '
   391  0659  346D               	retlw	109	;'m'
   392  065A  346F               	retlw	111	;'o'
   393  065B  3474               	retlw	116	;'t'
   394  065C  346F               	retlw	111	;'o'
   395  065D  3472               	retlw	114	;'r'
   396  065E  3465               	retlw	101	;'e'
   397  065F  3473               	retlw	115	;'s'
   398  0660  3420               	retlw	32	;' '
   399  0661  3469               	retlw	105	;'i'
   400  0662  346E               	retlw	110	;'n'
   401  0663  3464               	retlw	100	;'d'
   402  0664  3469               	retlw	105	;'i'
   403  0665  3476               	retlw	118	;'v'
   404  0666  3469               	retlw	105	;'i'
   405  0667  3464               	retlw	100	;'d'
   406  0668  3475               	retlw	117	;'u'
   407  0669  3461               	retlw	97	;'a'
   408  066A  346C               	retlw	108	;'l'
   409  066B  3465               	retlw	101	;'e'
   410  066C  3473               	retlw	115	;'s'
   411  066D  3420               	retlw	32	;' '
   412  066E  340D               	retlw	13
   413  066F  3400               	retlw	0
   414  0670                     STR_6:
   415  0670  340D               	retlw	13
   416  0671  3420               	retlw	32	;' '
   417  0672  3451               	retlw	81	;'Q'
   418  0673  3475               	retlw	117	;'u'
   419  0674  3465               	retlw	101	;'e'
   420  0675  3420               	retlw	32	;' '
   421  0676  346D               	retlw	109	;'m'
   422  0677  346F               	retlw	111	;'o'
   423  0678  3474               	retlw	116	;'t'
   424  0679  346F               	retlw	111	;'o'
   425  067A  3472               	retlw	114	;'r'
   426  067B  3420               	retlw	32	;' '
   427  067C  3464               	retlw	100	;'d'
   428  067D  3465               	retlw	101	;'e'
   429  067E  3473               	retlw	115	;'s'
   430  067F  3465               	retlw	101	;'e'
   431  0680  3461               	retlw	97	;'a'
   432  0681  3420               	retlw	32	;' '
   433  0682  346D               	retlw	109	;'m'
   434  0683  346F               	retlw	111	;'o'
   435  0684  3476               	retlw	118	;'v'
   436  0685  3465               	retlw	101	;'e'
   437  0686  3472               	retlw	114	;'r'
   438  0687  343F               	retlw	63	;'?'
   439  0688  3420               	retlw	32	;' '
   440  0689  340D               	retlw	13
   441  068A  3400               	retlw	0
   442  068B                     STR_5:
   443  068B  3420               	retlw	32	;' '
   444  068C  3433               	retlw	51	;'3'
   445  068D  342E               	retlw	46	;'.'
   446  068E  3420               	retlw	32	;' '
   447  068F  3453               	retlw	83	;'S'
   448  0690  3461               	retlw	97	;'a'
   449  0691  346C               	retlw	108	;'l'
   450  0692  3469               	retlw	105	;'i'
   451  0693  3472               	retlw	114	;'r'
   452  0694  3420               	retlw	32	;' '
   453  0695  3464               	retlw	100	;'d'
   454  0696  3465               	retlw	101	;'e'
   455  0697  3420               	retlw	32	;' '
   456  0698  346C               	retlw	108	;'l'
   457  0699  3461               	retlw	97	;'a'
   458  069A  3420               	retlw	32	;' '
   459  069B  3474               	retlw	116	;'t'
   460  069C  3465               	retlw	101	;'e'
   461  069D  3472               	retlw	114	;'r'
   462  069E  346D               	retlw	109	;'m'
   463  069F  3469               	retlw	105	;'i'
   464  06A0  346E               	retlw	110	;'n'
   465  06A1  3461               	retlw	97	;'a'
   466  06A2  346C               	retlw	108	;'l'
   467  06A3  3420               	retlw	32	;' '
   468  06A4  340D               	retlw	13
   469  06A5  3400               	retlw	0
   470  06A6                     STR_12:
   471  06A6  340D               	retlw	13
   472  06A7  3420               	retlw	32	;' '
   473  06A8  3461               	retlw	97	;'a'
   474  06A9  342E               	retlw	46	;'.'
   475  06AA  3420               	retlw	32	;' '
   476  06AB  3443               	retlw	67	;'C'
   477  06AC  346F               	retlw	111	;'o'
   478  06AD  346E               	retlw	110	;'n'
   479  06AE  3474               	retlw	116	;'t'
   480  06AF  3465               	retlw	101	;'e'
   481  06B0  346F               	retlw	111	;'o'
   482  06B1  3420               	retlw	32	;' '
   483  06B2  3464               	retlw	100	;'d'
   484  06B3  3465               	retlw	101	;'e'
   485  06B4  3420               	retlw	32	;' '
   486  06B5  3431               	retlw	49	;'1'
   487  06B6  3420               	retlw	32	;' '
   488  06B7  3461               	retlw	97	;'a'
   489  06B8  3420               	retlw	32	;' '
   490  06B9  3435               	retlw	53	;'5'
   491  06BA  343A               	retlw	58	;':'
   492  06BB  3420               	retlw	32	;' '
   493  06BC  340D               	retlw	13
   494  06BD  3400               	retlw	0
   495  06BE                     STR_4:
   496  06BE  3420               	retlw	32	;' '
   497  06BF  3432               	retlw	50	;'2'
   498  06C0  342E               	retlw	46	;'.'
   499  06C1  3420               	retlw	32	;' '
   500  06C2  3445               	retlw	69	;'E'
   501  06C3  346C               	retlw	108	;'l'
   502  06C4  3465               	retlw	101	;'e'
   503  06C5  3467               	retlw	103	;'g'
   504  06C6  3469               	retlw	105	;'i'
   505  06C7  3472               	retlw	114	;'r'
   506  06C8  3420               	retlw	32	;' '
   507  06C9  3475               	retlw	117	;'u'
   508  06CA  346E               	retlw	110	;'n'
   509  06CB  3461               	retlw	97	;'a'
   510  06CC  3420               	retlw	32	;' '
   511  06CD  3472               	retlw	114	;'r'
   512  06CE  3475               	retlw	117	;'u'
   513  06CF  3474               	retlw	116	;'t'
   514  06D0  3469               	retlw	105	;'i'
   515  06D1  346E               	retlw	110	;'n'
   516  06D2  3461               	retlw	97	;'a'
   517  06D3  3420               	retlw	32	;' '
   518  06D4  340D               	retlw	13
   519  06D5  3400               	retlw	0
   520  06D6                     STR_7:
   521  06D6  3420               	retlw	32	;' '
   522  06D7  3461               	retlw	97	;'a'
   523  06D8  342E               	retlw	46	;'.'
   524  06D9  3420               	retlw	32	;' '
   525  06DA  344D               	retlw	77	;'M'
   526  06DB  346F               	retlw	111	;'o'
   527  06DC  3476               	retlw	118	;'v'
   528  06DD  3465               	retlw	101	;'e'
   529  06DE  3472               	retlw	114	;'r'
   530  06DF  3420               	retlw	32	;' '
   531  06E0  346D               	retlw	109	;'m'
   532  06E1  346F               	retlw	111	;'o'
   533  06E2  3474               	retlw	116	;'t'
   534  06E3  346F               	retlw	111	;'o'
   535  06E4  3472               	retlw	114	;'r'
   536  06E5  3420               	retlw	32	;' '
   537  06E6  3431               	retlw	49	;'1'
   538  06E7  3420               	retlw	32	;' '
   539  06E8  340D               	retlw	13
   540  06E9  3400               	retlw	0
   541  06EA                     STR_8:
   542  06EA  3420               	retlw	32	;' '
   543  06EB  3462               	retlw	98	;'b'
   544  06EC  342E               	retlw	46	;'.'
   545  06ED  3420               	retlw	32	;' '
   546  06EE  344D               	retlw	77	;'M'
   547  06EF  346F               	retlw	111	;'o'
   548  06F0  3476               	retlw	118	;'v'
   549  06F1  3465               	retlw	101	;'e'
   550  06F2  3472               	retlw	114	;'r'
   551  06F3  3420               	retlw	32	;' '
   552  06F4  346D               	retlw	109	;'m'
   553  06F5  346F               	retlw	111	;'o'
   554  06F6  3474               	retlw	116	;'t'
   555  06F7  346F               	retlw	111	;'o'
   556  06F8  3472               	retlw	114	;'r'
   557  06F9  3420               	retlw	32	;' '
   558  06FA  3432               	retlw	50	;'2'
   559  06FB  3420               	retlw	32	;' '
   560  06FC  340D               	retlw	13
   561  06FD  3400               	retlw	0
   562  06FE                     STR_9:
   563  06FE  3420               	retlw	32	;' '
   564  06FF  3463               	retlw	99	;'c'
   565  0700  342E               	retlw	46	;'.'
   566  0701  3420               	retlw	32	;' '
   567  0702  344D               	retlw	77	;'M'
   568  0703  346F               	retlw	111	;'o'
   569  0704  3476               	retlw	118	;'v'
   570  0705  3465               	retlw	101	;'e'
   571  0706  3472               	retlw	114	;'r'
   572  0707  3420               	retlw	32	;' '
   573  0708  346D               	retlw	109	;'m'
   574  0709  346F               	retlw	111	;'o'
   575  070A  3474               	retlw	116	;'t'
   576  070B  346F               	retlw	111	;'o'
   577  070C  3472               	retlw	114	;'r'
   578  070D  3420               	retlw	32	;' '
   579  070E  3433               	retlw	51	;'3'
   580  070F  3420               	retlw	32	;' '
   581  0710  340D               	retlw	13
   582  0711  3400               	retlw	0
   583  0712                     STR_10:
   584  0712  3420               	retlw	32	;' '
   585  0713  3464               	retlw	100	;'d'
   586  0714  342E               	retlw	46	;'.'
   587  0715  3420               	retlw	32	;' '
   588  0716  344D               	retlw	77	;'M'
   589  0717  346F               	retlw	111	;'o'
   590  0718  3476               	retlw	118	;'v'
   591  0719  3465               	retlw	101	;'e'
   592  071A  3472               	retlw	114	;'r'
   593  071B  3420               	retlw	32	;' '
   594  071C  346D               	retlw	109	;'m'
   595  071D  346F               	retlw	111	;'o'
   596  071E  3474               	retlw	116	;'t'
   597  071F  346F               	retlw	111	;'o'
   598  0720  3472               	retlw	114	;'r'
   599  0721  3420               	retlw	32	;' '
   600  0722  3434               	retlw	52	;'4'
   601  0723  3420               	retlw	32	;' '
   602  0724  340D               	retlw	13
   603  0725  3400               	retlw	0
   604  0726                     STR_11:
   605  0726  3420               	retlw	32	;' '
   606  0727  3465               	retlw	101	;'e'
   607  0728  342E               	retlw	46	;'.'
   608  0729  3420               	retlw	32	;' '
   609  072A  344D               	retlw	77	;'M'
   610  072B  346F               	retlw	111	;'o'
   611  072C  3476               	retlw	118	;'v'
   612  072D  3465               	retlw	101	;'e'
   613  072E  3472               	retlw	114	;'r'
   614  072F  3420               	retlw	32	;' '
   615  0730  346D               	retlw	109	;'m'
   616  0731  346F               	retlw	111	;'o'
   617  0732  3474               	retlw	116	;'t'
   618  0733  346F               	retlw	111	;'o'
   619  0734  3472               	retlw	114	;'r'
   620  0735  3420               	retlw	32	;' '
   621  0736  3435               	retlw	53	;'5'
   622  0737  3420               	retlw	32	;' '
   623  0738  340D               	retlw	13
   624  0739  3400               	retlw	0
   625  073A                     STR_13:
   626  073A  340D               	retlw	13
   627  073B  3420               	retlw	32	;' '
   628  073C  34C2               	retlw	-62
   629  073D  34BF               	retlw	-65
   630  073E  3445               	retlw	69	;'E'
   631  073F  3473               	retlw	115	;'s'
   632  0740  3474               	retlw	116	;'t'
   633  0741  3461               	retlw	97	;'a'
   634  0742  3420               	retlw	32	;' '
   635  0743  3473               	retlw	115	;'s'
   636  0744  3465               	retlw	101	;'e'
   637  0745  3467               	retlw	103	;'g'
   638  0746  3475               	retlw	117	;'u'
   639  0747  3472               	retlw	114	;'r'
   640  0748  346F               	retlw	111	;'o'
   641  0749  343F               	retlw	63	;'?'
   642  074A  3420               	retlw	32	;' '
   643  074B  340D               	retlw	13
   644  074C  3400               	retlw	0
   645  074D                     STR_14:
   646  074D  3420               	retlw	32	;' '
   647  074E  3461               	retlw	97	;'a'
   648  074F  342E               	retlw	46	;'.'
   649  0750  3420               	retlw	32	;' '
   650  0751  3453               	retlw	83	;'S'
   651  0752  3469               	retlw	105	;'i'
   652  0753  3420               	retlw	32	;' '
   653  0754  340D               	retlw	13
   654  0755  3400               	retlw	0
   655  0756                     STR_15:
   656  0756  3420               	retlw	32	;' '
   657  0757  3462               	retlw	98	;'b'
   658  0758  342E               	retlw	46	;'.'
   659  0759  3420               	retlw	32	;' '
   660  075A  344E               	retlw	78	;'N'
   661  075B  346F               	retlw	111	;'o'
   662  075C  3420               	retlw	32	;' '
   663  075D  340D               	retlw	13
   664  075E  3400               	retlw	0
   665                           
   666                           	psect	cinit
   667  0015                     start_initialization:	
   668                           ; #config settings
   669                           
   670  0015                     __initialization:
   671                           
   672                           ; Clear objects allocated to COMMON
   673  0015  01FB               	clrf	__pbssCOMMON& (0+127)
   674  0016  01FC               	clrf	(__pbssCOMMON+1)& (0+127)
   675  0017  01FD               	clrf	(__pbssCOMMON+2)& (0+127)
   676                           
   677                           ; Clear objects allocated to BANK0
   678  0018  1383               	bcf	3,7	;select IRP bank0
   679  0019  3020               	movlw	low __pbssBANK0
   680  001A  0084               	movwf	4
   681  001B  3035               	movlw	low (__pbssBANK0+21)
   682  001C  120A  118A  27F7  120A  118A  	fcall	clear_ram0
   683  0021                     end_of_initialization:	
   684                           ;End of C runtime variable initialization code
   685                           
   686  0021                     __end_of__initialization:
   687  0021  0183               	clrf	3
   688  0022  120A  158A  2F32   	ljmp	_main	;jump to C main() function
   689                           
   690                           	psect	bssCOMMON
   691  007B                     __pbssCOMMON:
   692  007B                     _var:
   693  007B                     	ds	2
   694  007D                     _dato:
   695  007D                     	ds	1
   696                           
   697                           	psect	bssBANK0
   698  0020                     __pbssBANK0:
   699  0020                     _lec_pwm2:
   700  0020                     	ds	2
   701  0022                     _lec_pwm1:
   702  0022                     	ds	2
   703  0024                     _lectura_05:
   704  0024                     	ds	2
   705  0026                     _lectura_04:
   706  0026                     	ds	2
   707  0028                     _lectura_03:
   708  0028                     	ds	2
   709  002A                     _lectura_02:
   710  002A                     	ds	2
   711  002C                     _lectura_01:
   712  002C                     	ds	2
   713  002E                     _flag_uart:
   714  002E                     	ds	2
   715  0030                     _var2:
   716  0030                     	ds	2
   717  0032                     _var1:
   718  0032                     	ds	2
   719  0034                     _direccion:
   720  0034                     	ds	1
   721                           
   722                           	psect	clrtext
   723  07F7                     clear_ram0:	
   724                           ;	Called with FSR containing the base address, and
   725                           ;	W with the last address+1
   726                           
   727  07F7  0064               	clrwdt	;clear the watchdog before getting into this loop
   728  07F8                     clrloop0:
   729  07F8  0180               	clrf	0	;clear RAM location pointed to by FSR
   730  07F9  0A84               	incf	4,f	;increment pointer
   731  07FA  0604               	xorwf	4,w	;XOR with final address
   732  07FB  1903               	btfsc	3,2	;have we reached the end yet?
   733  07FC  3400               	retlw	0	;all done for this memory range, return
   734  07FD  0604               	xorwf	4,w	;XOR again to restore value
   735  07FE  2FF8               	goto	clrloop0	;do the next byte
   736                           
   737                           	psect	cstackCOMMON
   738  0070                     __pcstackCOMMON:
   739  0070                     ?_dedo1_3:
   740  0070                     ??_dedo1_3:	
   741                           ; 1 bytes @ 0x0
   742                           
   743  0070                     ?_dedo1_2:	
   744                           ; 1 bytes @ 0x0
   745                           
   746  0070                     ??_dedo1_2:	
   747                           ; 1 bytes @ 0x0
   748                           
   749  0070                     ?_dedo1_1:	
   750                           ; 1 bytes @ 0x0
   751                           
   752  0070                     ??_dedo1_1:	
   753                           ; 1 bytes @ 0x0
   754                           
   755  0070                     ?_dedo2_3:	
   756                           ; 1 bytes @ 0x0
   757                           
   758  0070                     ??_dedo2_3:	
   759                           ; 1 bytes @ 0x0
   760                           
   761  0070                     ?_dedo2_2:	
   762                           ; 1 bytes @ 0x0
   763                           
   764  0070                     ??_dedo2_2:	
   765                           ; 1 bytes @ 0x0
   766                           
   767  0070                     ?_dedo2_1:	
   768                           ; 1 bytes @ 0x0
   769                           
   770  0070                     ??_dedo2_1:	
   771                           ; 1 bytes @ 0x0
   772                           
   773  0070                     ?_dedo3_3:	
   774                           ; 1 bytes @ 0x0
   775                           
   776  0070                     ??_dedo3_3:	
   777                           ; 1 bytes @ 0x0
   778                           
   779  0070                     ?_dedo3_2:	
   780                           ; 1 bytes @ 0x0
   781                           
   782  0070                     ??_dedo3_2:	
   783                           ; 1 bytes @ 0x0
   784                           
   785  0070                     ?_dedo3_1:	
   786                           ; 1 bytes @ 0x0
   787                           
   788  0070                     ??_dedo3_1:	
   789                           ; 1 bytes @ 0x0
   790                           
   791  0070                     ?_read_eeprom:	
   792                           ; 1 bytes @ 0x0
   793                           
   794  0070                     ??_read_eeprom:	
   795                           ; 1 bytes @ 0x0
   796                           
   797  0070                     ?_write_eeprom:	
   798                           ; 1 bytes @ 0x0
   799                           
   800  0070                     ?_menu:	
   801                           ; 1 bytes @ 0x0
   802                           
   803  0070                     ?_setup:	
   804                           ; 1 bytes @ 0x0
   805                           
   806  0070                     ?_chanel:	
   807                           ; 1 bytes @ 0x0
   808                           
   809  0070                     ?_isr:	
   810                           ; 1 bytes @ 0x0
   811                           
   812  0070                     ?_main:	
   813                           ; 1 bytes @ 0x0
   814                           
   815  0070                     ?_putch:	
   816                           ; 1 bytes @ 0x0
   817                           
   818  0070                     ??_putch:	
   819                           ; 1 bytes @ 0x0
   820                           
   821  0070                     write_eeprom@direccion:	
   822                           ; 1 bytes @ 0x0
   823                           
   824  0070                     putch@data:	
   825                           ; 1 bytes @ 0x0
   826                           
   827                           
   828                           ; 1 bytes @ 0x0
   829  0070                     	ds	1
   830  0071                     ??_write_eeprom:
   831  0071                     ?_printf:	
   832                           ; 1 bytes @ 0x1
   833                           
   834  0071                     write_eeprom@dato:	
   835                           ; 2 bytes @ 0x1
   836                           
   837  0071                     read_eeprom@direccion:	
   838                           ; 1 bytes @ 0x1
   839                           
   840  0071                     printf@f:	
   841                           ; 1 bytes @ 0x1
   842                           
   843                           
   844                           ; 2 bytes @ 0x1
   845  0071                     	ds	1
   846  0072                     read_eeprom@dato:
   847                           
   848                           ; 1 bytes @ 0x2
   849  0072                     	ds	1
   850  0073                     ??_printf:
   851                           
   852                           ; 1 bytes @ 0x3
   853  0073                     	ds	3
   854  0076                     printf@ap:
   855                           
   856                           ; 1 bytes @ 0x6
   857  0076                     	ds	1
   858  0077                     printf@c:
   859                           
   860                           ; 1 bytes @ 0x7
   861  0077                     	ds	1
   862  0078                     ??_menu:
   863                           
   864                           ; 1 bytes @ 0x8
   865  0078                     	ds	3
   866                           
   867                           	psect	cstackBANK0
   868  0035                     __pcstackBANK0:
   869  0035                     ??_isr:
   870                           
   871                           ; 1 bytes @ 0x0
   872  0035                     	ds	7
   873  003C                     ??_setup:
   874  003C                     ??_chanel:	
   875                           ; 1 bytes @ 0x7
   876                           
   877                           
   878                           ; 1 bytes @ 0x7
   879  003C                     	ds	1
   880  003D                     ??_main:
   881                           
   882                           	psect	maintext
   883  0F32                     __pmaintext:	
   884                           ; 1 bytes @ 0x8
   885 ;;
   886 ;;Main: autosize = 0, tempsize = 0, incstack = 0, save=0
   887 ;;
   888 ;; *************** function _main *****************
   889 ;; Defined at:
   890 ;;		line 215 in file "Proyecto02.c"
   891 ;; Parameters:    Size  Location     Type
   892 ;;		None
   893 ;; Auto vars:     Size  Location     Type
   894 ;;		None
   895 ;; Return value:  Size  Location     Type
   896 ;;                  1    wreg      void 
   897 ;; Registers used:
   898 ;;		wreg, status,2, status,0, pclath, cstack
   899 ;; Tracked objects:
   900 ;;		On entry : B00/0
   901 ;;		On exit  : 0/0
   902 ;;		Unchanged: 0/0
   903 ;; Data sizes:     COMMON   BANK0   BANK1   BANK3   BANK2
   904 ;;      Params:         0       0       0       0       0
   905 ;;      Locals:         0       0       0       0       0
   906 ;;      Temps:          0       0       0       0       0
   907 ;;      Totals:         0       0       0       0       0
   908 ;;Total ram usage:        0 bytes
   909 ;; Hardware stack levels required when called:    5
   910 ;; This function calls:
   911 ;;		_chanel
   912 ;;		_setup
   913 ;; This function is called by:
   914 ;;		Startup code after reset
   915 ;; This function uses a non-reentrant model
   916 ;;
   917                           
   918                           
   919                           ;psect for function _main
   920  0F32                     _main:
   921  0F32                     l1836:	
   922                           ;incstack = 0
   923                           ; Regs used in _main: [wreg+status,2+status,0+pclath+cstack]
   924                           
   925                           
   926                           ;Proyecto02.c: 217:     setup();
   927  0F32  120A  118A  275F  120A  158A  	fcall	_setup
   928  0F37                     l194:	
   929                           ;Proyecto02.c: 219:     while(1)
   930                           
   931                           
   932                           ;Proyecto02.c: 220:     {;Proyecto02.c: 221:       chanel();
   933  0F37  120A  118A  2550  120A  158A  	fcall	_chanel
   934  0F3C  2F37               	goto	l194
   935  0F3D  120A  118A  2812   	ljmp	start
   936  0F40                     __end_of_main:
   937                           
   938                           	psect	text1
   939  075F                     __ptext1:	
   940 ;; *************** function _setup *****************
   941 ;; Defined at:
   942 ;;		line 226 in file "Proyecto02.c"
   943 ;; Parameters:    Size  Location     Type
   944 ;;		None
   945 ;; Auto vars:     Size  Location     Type
   946 ;;		None
   947 ;; Return value:  Size  Location     Type
   948 ;;                  1    wreg      void 
   949 ;; Registers used:
   950 ;;		wreg, status,2, status,0
   951 ;; Tracked objects:
   952 ;;		On entry : 0/0
   953 ;;		On exit  : 0/0
   954 ;;		Unchanged: 0/0
   955 ;; Data sizes:     COMMON   BANK0   BANK1   BANK3   BANK2
   956 ;;      Params:         0       0       0       0       0
   957 ;;      Locals:         0       0       0       0       0
   958 ;;      Temps:          0       1       0       0       0
   959 ;;      Totals:         0       1       0       0       0
   960 ;;Total ram usage:        1 bytes
   961 ;; Hardware stack levels used:    1
   962 ;; Hardware stack levels required when called:    4
   963 ;; This function calls:
   964 ;;		Nothing
   965 ;; This function is called by:
   966 ;;		_main
   967 ;; This function uses a non-reentrant model
   968 ;;
   969                           
   970                           
   971                           ;psect for function _setup
   972  075F                     _setup:
   973  075F                     l1546:	
   974                           ;incstack = 0
   975                           ; Regs used in _setup: [wreg+status,2+status,0]
   976                           
   977                           
   978                           ;Proyecto02.c: 229:     ANSEL = 0b00011111;
   979  075F  301F               	movlw	31
   980  0760  1683               	bsf	3,5	;RP0=1, select bank3
   981  0761  1703               	bsf	3,6	;RP1=1, select bank3
   982  0762  0088               	movwf	8	;volatile
   983  0763                     l1548:
   984                           
   985                           ;Proyecto02.c: 230:     ANSELH = 0;
   986  0763  0189               	clrf	9	;volatile
   987  0764                     l1550:
   988                           
   989                           ;Proyecto02.c: 234:     TRISAbits.TRISA0 = 1;
   990  0764  1683               	bsf	3,5	;RP0=1, select bank1
   991  0765  1303               	bcf	3,6	;RP1=0, select bank1
   992  0766  1405               	bsf	5,0	;volatile
   993  0767                     l1552:
   994                           
   995                           ;Proyecto02.c: 235:     TRISAbits.TRISA1 = 1;
   996  0767  1485               	bsf	5,1	;volatile
   997  0768                     l1554:
   998                           
   999                           ;Proyecto02.c: 236:     TRISAbits.TRISA2 = 1;
  1000  0768  1505               	bsf	5,2	;volatile
  1001  0769                     l1556:
  1002                           
  1003                           ;Proyecto02.c: 237:     TRISAbits.TRISA3 = 1;
  1004  0769  1585               	bsf	5,3	;volatile
  1005  076A                     l1558:
  1006                           
  1007                           ;Proyecto02.c: 238:     TRISAbits.TRISA5 = 1;
  1008  076A  1685               	bsf	5,5	;volatile
  1009  076B                     l1560:
  1010                           
  1011                           ;Proyecto02.c: 242:     TRISBbits.TRISB0 = 1;
  1012  076B  1406               	bsf	6,0	;volatile
  1013  076C                     l1562:
  1014                           
  1015                           ;Proyecto02.c: 243:     TRISBbits.TRISB1 = 1;
  1016  076C  1486               	bsf	6,1	;volatile
  1017  076D                     l1564:
  1018                           
  1019                           ;Proyecto02.c: 244:     TRISBbits.TRISB2 = 1;
  1020  076D  1506               	bsf	6,2	;volatile
  1021  076E                     l1566:
  1022                           
  1023                           ;Proyecto02.c: 245:     TRISBbits.TRISB6 = 0;
  1024  076E  1306               	bcf	6,6	;volatile
  1025  076F                     l1568:
  1026                           
  1027                           ;Proyecto02.c: 246:     TRISBbits.TRISB7 = 0;
  1028  076F  1386               	bcf	6,7	;volatile
  1029  0770                     l1570:
  1030                           
  1031                           ;Proyecto02.c: 250:     TRISDbits.TRISD0 = 0;
  1032  0770  1008               	bcf	8,0	;volatile
  1033  0771                     l1572:
  1034                           
  1035                           ;Proyecto02.c: 251:     TRISDbits.TRISD1 = 0;
  1036  0771  1088               	bcf	8,1	;volatile
  1037  0772                     l1574:
  1038                           
  1039                           ;Proyecto02.c: 252:     TRISDbits.TRISD2 = 0;
  1040  0772  1108               	bcf	8,2	;volatile
  1041  0773                     l1576:
  1042                           
  1043                           ;Proyecto02.c: 255:     PORTA = 0x00;
  1044  0773  1283               	bcf	3,5	;RP0=0, select bank0
  1045  0774  1303               	bcf	3,6	;RP1=0, select bank0
  1046  0775  0185               	clrf	5	;volatile
  1047  0776                     l1578:
  1048                           
  1049                           ;Proyecto02.c: 256:     PORTB = 0x00;
  1050  0776  0186               	clrf	6	;volatile
  1051  0777                     l1580:
  1052                           
  1053                           ;Proyecto02.c: 257:     PORTC = 0x00;
  1054  0777  0187               	clrf	7	;volatile
  1055  0778                     l1582:
  1056                           
  1057                           ;Proyecto02.c: 258:     PORTD = 0x00;
  1058  0778  0188               	clrf	8	;volatile
  1059  0779                     l1584:
  1060                           
  1061                           ;Proyecto02.c: 261:     OPTION_REGbits.nRBPU = 0;
  1062  0779  1683               	bsf	3,5	;RP0=1, select bank1
  1063  077A  1303               	bcf	3,6	;RP1=0, select bank1
  1064  077B  1381               	bcf	1,7	;volatile
  1065  077C                     l1586:
  1066                           
  1067                           ;Proyecto02.c: 262:     WPUBbits.WPUB = 0b00000111;
  1068  077C  3007               	movlw	7
  1069  077D  0095               	movwf	21	;volatile
  1070  077E                     l1588:
  1071                           
  1072                           ;Proyecto02.c: 263:     IOCBbits.IOCB = 0b00000111;
  1073  077E  3007               	movlw	7
  1074  077F  0096               	movwf	22	;volatile
  1075  0780                     l1590:
  1076                           
  1077                           ;Proyecto02.c: 266:     OSCCONbits.IRCF2 = 1;
  1078  0780  170F               	bsf	15,6	;volatile
  1079  0781                     l1592:
  1080                           
  1081                           ;Proyecto02.c: 267:     OSCCONbits.IRCF1 = 1;
  1082  0781  168F               	bsf	15,5	;volatile
  1083  0782                     l1594:
  1084                           
  1085                           ;Proyecto02.c: 268:     OSCCONbits.IRCF0 = 1;
  1086  0782  160F               	bsf	15,4	;volatile
  1087  0783                     l1596:
  1088                           
  1089                           ;Proyecto02.c: 269:     OSCCONbits.SCS = 1;
  1090  0783  140F               	bsf	15,0	;volatile
  1091  0784                     l1598:
  1092                           
  1093                           ;Proyecto02.c: 272:     INTCONbits.GIE = 1;
  1094  0784  178B               	bsf	11,7	;volatile
  1095  0785                     l1600:
  1096                           
  1097                           ;Proyecto02.c: 273:     INTCONbits.RBIF = 1;
  1098  0785  140B               	bsf	11,0	;volatile
  1099  0786                     l1602:
  1100                           
  1101                           ;Proyecto02.c: 274:     INTCONbits.RBIE = 1;
  1102  0786  158B               	bsf	11,3	;volatile
  1103  0787                     l1604:
  1104                           
  1105                           ;Proyecto02.c: 275:     INTCONbits.PEIE = 1;
  1106  0787  170B               	bsf	11,6	;volatile
  1107  0788                     l1606:
  1108                           
  1109                           ;Proyecto02.c: 276:     PIE1bits.ADIE = 1;
  1110  0788  170C               	bsf	12,6	;volatile
  1111  0789                     l1608:
  1112                           
  1113                           ;Proyecto02.c: 277:     PIR1bits.ADIF = 0;
  1114  0789  1283               	bcf	3,5	;RP0=0, select bank0
  1115  078A  1303               	bcf	3,6	;RP1=0, select bank0
  1116  078B  130C               	bcf	12,6	;volatile
  1117  078C                     l1610:
  1118                           
  1119                           ;Proyecto02.c: 278:     PIE1bits.RCIE = 1;
  1120  078C  1683               	bsf	3,5	;RP0=1, select bank1
  1121  078D  1303               	bcf	3,6	;RP1=0, select bank1
  1122  078E  168C               	bsf	12,5	;volatile
  1123  078F                     l1612:
  1124                           
  1125                           ;Proyecto02.c: 279:     PIE1bits.TXIE = 1;
  1126  078F  160C               	bsf	12,4	;volatile
  1127  0790                     l1614:
  1128                           
  1129                           ;Proyecto02.c: 282:     ADCON0bits.ADCS0 = 0;
  1130  0790  1283               	bcf	3,5	;RP0=0, select bank0
  1131  0791  1303               	bcf	3,6	;RP1=0, select bank0
  1132  0792  131F               	bcf	31,6	;volatile
  1133  0793                     l1616:
  1134                           
  1135                           ;Proyecto02.c: 283:     ADCON0bits.ADCS1 = 1;
  1136  0793  179F               	bsf	31,7	;volatile
  1137  0794                     l1618:
  1138                           
  1139                           ;Proyecto02.c: 284:     ADCON0bits.ADON = 1;
  1140  0794  141F               	bsf	31,0	;volatile
  1141  0795                     l1620:
  1142                           
  1143                           ;Proyecto02.c: 285:     ADCON0bits.CHS = 0;
  1144  0795  30C3               	movlw	-61
  1145  0796  059F               	andwf	31,f	;volatile
  1146  0797                     l1622:
  1147                           
  1148                           ;Proyecto02.c: 286:     _delay((unsigned long)((50)*(8000000/4000000.0)));
  1149  0797  3020               	movlw	32
  1150  0798  1283               	bcf	3,5	;RP0=0, select bank0
  1151  0799  1303               	bcf	3,6	;RP1=0, select bank0
  1152  079A  00BC               	movwf	??_setup
  1153  079B                     u1177:
  1154  079B  0BBC               	decfsz	??_setup,f
  1155  079C  2F9B               	goto	u1177
  1156  079D  0000               	nop
  1157  079E                     l1624:
  1158                           
  1159                           ;Proyecto02.c: 288:     ADCON1bits.ADFM = 0;
  1160  079E  1683               	bsf	3,5	;RP0=1, select bank1
  1161  079F  1303               	bcf	3,6	;RP1=0, select bank1
  1162  07A0  139F               	bcf	31,7	;volatile
  1163  07A1                     l1626:
  1164                           
  1165                           ;Proyecto02.c: 289:     ADCON1bits.VCFG0 = 0;
  1166  07A1  121F               	bcf	31,4	;volatile
  1167  07A2                     l1628:
  1168                           
  1169                           ;Proyecto02.c: 290:     ADCON1bits.VCFG1 = 0;
  1170  07A2  129F               	bcf	31,5	;volatile
  1171  07A3                     l1630:
  1172                           
  1173                           ;Proyecto02.c: 293:     TRISCbits.TRISC1 = 1;
  1174  07A3  1487               	bsf	7,1	;volatile
  1175  07A4                     l1632:
  1176                           
  1177                           ;Proyecto02.c: 294:     TRISCbits.TRISC2 = 1;
  1178  07A4  1507               	bsf	7,2	;volatile
  1179  07A5                     l1634:
  1180                           
  1181                           ;Proyecto02.c: 296:     PR2 = 250;
  1182  07A5  30FA               	movlw	250
  1183  07A6  0092               	movwf	18	;volatile
  1184  07A7                     l1636:
  1185                           
  1186                           ;Proyecto02.c: 297:     CCP1CONbits.P1M = 0;
  1187  07A7  303F               	movlw	-193
  1188  07A8  1283               	bcf	3,5	;RP0=0, select bank0
  1189  07A9  1303               	bcf	3,6	;RP1=0, select bank0
  1190  07AA  0597               	andwf	23,f	;volatile
  1191  07AB                     l1638:
  1192                           
  1193                           ;Proyecto02.c: 298:     CCP1CONbits.CCP1M = 0b1100;
  1194  07AB  0817               	movf	23,w	;volatile
  1195  07AC  39F0               	andlw	-16
  1196  07AD  380C               	iorlw	12
  1197  07AE  0097               	movwf	23	;volatile
  1198  07AF                     l1640:
  1199                           
  1200                           ;Proyecto02.c: 299:     CCP2CONbits.CCP2M = 0b1100;
  1201  07AF  081D               	movf	29,w	;volatile
  1202  07B0  39F0               	andlw	-16
  1203  07B1  380C               	iorlw	12
  1204  07B2  009D               	movwf	29	;volatile
  1205  07B3                     l1642:
  1206                           
  1207                           ;Proyecto02.c: 301:     CCPR1L = 0x0f;
  1208  07B3  300F               	movlw	15
  1209  07B4  0095               	movwf	21	;volatile
  1210  07B5                     l1644:
  1211                           
  1212                           ;Proyecto02.c: 302:     CCP1CONbits.DC1B = 0;
  1213  07B5  30CF               	movlw	-49
  1214  07B6  0597               	andwf	23,f	;volatile
  1215  07B7                     l1646:
  1216                           
  1217                           ;Proyecto02.c: 304:     PIR1bits.TMR2IF = 0;
  1218  07B7  108C               	bcf	12,1	;volatile
  1219  07B8                     l1648:
  1220                           
  1221                           ;Proyecto02.c: 305:     T2CONbits.T2CKPS = 0b11;
  1222  07B8  3003               	movlw	3
  1223  07B9  0492               	iorwf	18,f	;volatile
  1224  07BA                     l1650:
  1225                           
  1226                           ;Proyecto02.c: 306:     T2CONbits.TMR2ON = 1;
  1227  07BA  1512               	bsf	18,2	;volatile
  1228  07BB                     l200:	
  1229                           ;Proyecto02.c: 308:     while(PIR1bits.TMR2IF == 0);
  1230                           
  1231  07BB  1C8C               	btfss	12,1	;volatile
  1232  07BC  2FBE               	goto	u751
  1233  07BD  2FBF               	goto	u750
  1234  07BE                     u751:
  1235  07BE  2FBB               	goto	l200
  1236  07BF                     u750:
  1237  07BF                     l202:
  1238                           
  1239                           ;Proyecto02.c: 309:     PIR1bits.TMR2IF = 0;
  1240  07BF  108C               	bcf	12,1	;volatile
  1241                           
  1242                           ;Proyecto02.c: 312:     TRISCbits.TRISC1 = 0;
  1243  07C0  1683               	bsf	3,5	;RP0=1, select bank1
  1244  07C1  1303               	bcf	3,6	;RP1=0, select bank1
  1245  07C2  1087               	bcf	7,1	;volatile
  1246                           
  1247                           ;Proyecto02.c: 313:     TRISCbits.TRISC2 = 0;
  1248  07C3  1107               	bcf	7,2	;volatile
  1249                           
  1250                           ;Proyecto02.c: 316:     TXSTAbits.SYNC = 0;
  1251  07C4  1218               	bcf	24,4	;volatile
  1252                           
  1253                           ;Proyecto02.c: 317:     TXSTAbits.BRGH = 1;
  1254  07C5  1518               	bsf	24,2	;volatile
  1255                           
  1256                           ;Proyecto02.c: 318:     BAUDCTLbits.BRG16 = 1;
  1257  07C6  1683               	bsf	3,5	;RP0=1, select bank3
  1258  07C7  1703               	bsf	3,6	;RP1=1, select bank3
  1259  07C8  1587               	bsf	7,3	;volatile
  1260  07C9                     l1652:
  1261                           
  1262                           ;Proyecto02.c: 320:     SPBRG = 208;
  1263  07C9  30D0               	movlw	208
  1264  07CA  1683               	bsf	3,5	;RP0=1, select bank1
  1265  07CB  1303               	bcf	3,6	;RP1=0, select bank1
  1266  07CC  0099               	movwf	25	;volatile
  1267  07CD                     l1654:
  1268                           
  1269                           ;Proyecto02.c: 321:     SPBRGH = 0;
  1270  07CD  019A               	clrf	26	;volatile
  1271  07CE                     l1656:
  1272                           
  1273                           ;Proyecto02.c: 323:     RCSTAbits.SPEN = 1;
  1274  07CE  1283               	bcf	3,5	;RP0=0, select bank0
  1275  07CF  1303               	bcf	3,6	;RP1=0, select bank0
  1276  07D0  1798               	bsf	24,7	;volatile
  1277  07D1                     l1658:
  1278                           
  1279                           ;Proyecto02.c: 324:     RCSTAbits.RX9 = 0;
  1280  07D1  1318               	bcf	24,6	;volatile
  1281  07D2                     l1660:
  1282                           
  1283                           ;Proyecto02.c: 325:     RCSTAbits.CREN = 1;
  1284  07D2  1618               	bsf	24,4	;volatile
  1285  07D3                     l1662:
  1286                           
  1287                           ;Proyecto02.c: 327:     TXSTAbits.TXEN = 1;
  1288  07D3  1683               	bsf	3,5	;RP0=1, select bank1
  1289  07D4  1303               	bcf	3,6	;RP1=0, select bank1
  1290  07D5  1698               	bsf	24,5	;volatile
  1291  07D6                     l1664:
  1292                           
  1293                           ;Proyecto02.c: 329:     PIR1bits.RCIF = 0;
  1294  07D6  1283               	bcf	3,5	;RP0=0, select bank0
  1295  07D7  1303               	bcf	3,6	;RP1=0, select bank0
  1296  07D8  128C               	bcf	12,5	;volatile
  1297  07D9                     l1666:
  1298                           
  1299                           ;Proyecto02.c: 330:     PIR1bits.TXIF = 0;
  1300  07D9  120C               	bcf	12,4	;volatile
  1301  07DA                     l203:
  1302  07DA  0008               	return
  1303  07DB                     __end_of_setup:
  1304                           
  1305                           	psect	text2
  1306  0550                     __ptext2:	
  1307 ;; *************** function _chanel *****************
  1308 ;; Defined at:
  1309 ;;		line 334 in file "Proyecto02.c"
  1310 ;; Parameters:    Size  Location     Type
  1311 ;;		None
  1312 ;; Auto vars:     Size  Location     Type
  1313 ;;		None
  1314 ;; Return value:  Size  Location     Type
  1315 ;;                  1    wreg      void 
  1316 ;; Registers used:
  1317 ;;		wreg, status,2, status,0
  1318 ;; Tracked objects:
  1319 ;;		On entry : 0/0
  1320 ;;		On exit  : 0/0
  1321 ;;		Unchanged: 0/0
  1322 ;; Data sizes:     COMMON   BANK0   BANK1   BANK3   BANK2
  1323 ;;      Params:         0       0       0       0       0
  1324 ;;      Locals:         0       0       0       0       0
  1325 ;;      Temps:          0       1       0       0       0
  1326 ;;      Totals:         0       1       0       0       0
  1327 ;;Total ram usage:        1 bytes
  1328 ;; Hardware stack levels used:    1
  1329 ;; Hardware stack levels required when called:    4
  1330 ;; This function calls:
  1331 ;;		Nothing
  1332 ;; This function is called by:
  1333 ;;		_main
  1334 ;; This function uses a non-reentrant model
  1335 ;;
  1336                           
  1337                           
  1338                           ;psect for function _chanel
  1339  0550                     _chanel:
  1340  0550                     l1668:	
  1341                           ;incstack = 0
  1342                           ; Regs used in _chanel: [wreg+status,2+status,0]
  1343                           
  1344                           
  1345                           ;Proyecto02.c: 336:     if(ADCON0bits.GO == 0){
  1346  0550  1283               	bcf	3,5	;RP0=0, select bank0
  1347  0551  1303               	bcf	3,6	;RP1=0, select bank0
  1348  0552  189F               	btfsc	31,1	;volatile
  1349  0553  2D55               	goto	u761
  1350  0554  2D56               	goto	u760
  1351  0555                     u761:
  1352  0555  2DA4               	goto	l216
  1353  0556                     u760:
  1354  0556                     l1670:
  1355                           
  1356                           ;Proyecto02.c: 337:             if(ADCON0bits.CHS == 0){
  1357  0556  0C1F               	rrf	31,w	;volatile
  1358  0557  00BC               	movwf	??_chanel
  1359  0558  0C3C               	rrf	??_chanel,w
  1360  0559  390F               	andlw	15
  1361  055A  3A00               	xorlw	0
  1362  055B  1D03               	skipz
  1363  055C  2D5E               	goto	u771
  1364  055D  2D5F               	goto	u770
  1365  055E                     u771:
  1366  055E  2D64               	goto	l1674
  1367  055F                     u770:
  1368  055F                     l1672:
  1369                           
  1370                           ;Proyecto02.c: 338:                 ADCON0bits.CHS = 1;
  1371  055F  081F               	movf	31,w	;volatile
  1372  0560  39C3               	andlw	-61
  1373  0561  3804               	iorlw	4
  1374  0562  009F               	movwf	31	;volatile
  1375                           
  1376                           ;Proyecto02.c: 339:             }
  1377  0563  2D9A               	goto	l1690
  1378  0564                     l1674:
  1379  0564  0C1F               	rrf	31,w	;volatile
  1380  0565  00BC               	movwf	??_chanel
  1381  0566  0C3C               	rrf	??_chanel,w
  1382  0567  390F               	andlw	15
  1383  0568  3A01               	xorlw	1
  1384  0569  1D03               	skipz
  1385  056A  2D6C               	goto	u781
  1386  056B  2D6D               	goto	u780
  1387  056C                     u781:
  1388  056C  2D72               	goto	l1678
  1389  056D                     u780:
  1390  056D                     l1676:
  1391                           
  1392                           ;Proyecto02.c: 341:                 ADCON0bits.CHS = 2;
  1393  056D  081F               	movf	31,w	;volatile
  1394  056E  39C3               	andlw	-61
  1395  056F  3808               	iorlw	8
  1396  0570  009F               	movwf	31	;volatile
  1397                           
  1398                           ;Proyecto02.c: 342:             }
  1399  0571  2D9A               	goto	l1690
  1400  0572                     l1678:
  1401  0572  0C1F               	rrf	31,w	;volatile
  1402  0573  00BC               	movwf	??_chanel
  1403  0574  0C3C               	rrf	??_chanel,w
  1404  0575  390F               	andlw	15
  1405  0576  3A02               	xorlw	2
  1406  0577  1D03               	skipz
  1407  0578  2D7A               	goto	u791
  1408  0579  2D7B               	goto	u790
  1409  057A                     u791:
  1410  057A  2D80               	goto	l1682
  1411  057B                     u790:
  1412  057B                     l1680:
  1413                           
  1414                           ;Proyecto02.c: 344:                 ADCON0bits.CHS = 3;
  1415  057B  081F               	movf	31,w	;volatile
  1416  057C  39C3               	andlw	-61
  1417  057D  380C               	iorlw	12
  1418  057E  009F               	movwf	31	;volatile
  1419                           
  1420                           ;Proyecto02.c: 345:             }
  1421  057F  2D9A               	goto	l1690
  1422  0580                     l1682:
  1423  0580  0C1F               	rrf	31,w	;volatile
  1424  0581  00BC               	movwf	??_chanel
  1425  0582  0C3C               	rrf	??_chanel,w
  1426  0583  390F               	andlw	15
  1427  0584  3A03               	xorlw	3
  1428  0585  1D03               	skipz
  1429  0586  2D88               	goto	u801
  1430  0587  2D89               	goto	u800
  1431  0588                     u801:
  1432  0588  2D8E               	goto	l1686
  1433  0589                     u800:
  1434  0589                     l1684:
  1435                           
  1436                           ;Proyecto02.c: 347:                 ADCON0bits.CHS = 4;
  1437  0589  081F               	movf	31,w	;volatile
  1438  058A  39C3               	andlw	-61
  1439  058B  3810               	iorlw	16
  1440  058C  009F               	movwf	31	;volatile
  1441                           
  1442                           ;Proyecto02.c: 348:             }
  1443  058D  2D9A               	goto	l1690
  1444  058E                     l1686:
  1445  058E  0C1F               	rrf	31,w	;volatile
  1446  058F  00BC               	movwf	??_chanel
  1447  0590  0C3C               	rrf	??_chanel,w
  1448  0591  390F               	andlw	15
  1449  0592  3A04               	xorlw	4
  1450  0593  1D03               	skipz
  1451  0594  2D96               	goto	u811
  1452  0595  2D97               	goto	u810
  1453  0596                     u811:
  1454  0596  2D9A               	goto	l210
  1455  0597                     u810:
  1456  0597                     l1688:
  1457                           
  1458                           ;Proyecto02.c: 350:                 ADCON0bits.CHS = 0;
  1459  0597  30C3               	movlw	-61
  1460  0598  059F               	andwf	31,f	;volatile
  1461  0599  2D9A               	goto	l1690
  1462  059A                     l210:
  1463  059A                     l1690:
  1464                           
  1465                           ;Proyecto02.c: 353:             _delay((unsigned long)((50)*(8000000/4000000.0)));
  1466  059A  3020               	movlw	32
  1467  059B  1283               	bcf	3,5	;RP0=0, select bank0
  1468  059C  1303               	bcf	3,6	;RP1=0, select bank0
  1469  059D  00BC               	movwf	??_chanel
  1470  059E                     u1187:
  1471  059E  0BBC               	decfsz	??_chanel,f
  1472  059F  2D9E               	goto	u1187
  1473  05A0  0000               	nop
  1474  05A1                     l1692:
  1475                           
  1476                           ;Proyecto02.c: 354:             ADCON0bits.GO = 1;
  1477  05A1  1283               	bcf	3,5	;RP0=0, select bank0
  1478  05A2  1303               	bcf	3,6	;RP1=0, select bank0
  1479  05A3  149F               	bsf	31,1	;volatile
  1480  05A4                     l216:
  1481  05A4  0008               	return
  1482  05A5                     __end_of_chanel:
  1483                           
  1484                           	psect	text3
  1485  0025                     __ptext3:	
  1486 ;; *************** function _isr *****************
  1487 ;; Defined at:
  1488 ;;		line 75 in file "Proyecto02.c"
  1489 ;; Parameters:    Size  Location     Type
  1490 ;;		None
  1491 ;; Auto vars:     Size  Location     Type
  1492 ;;		None
  1493 ;; Return value:  Size  Location     Type
  1494 ;;                  1    wreg      void 
  1495 ;; Registers used:
  1496 ;;		wreg, fsr0l, fsr0h, status,2, status,0, btemp+1, pclath, cstack
  1497 ;; Tracked objects:
  1498 ;;		On entry : 0/0
  1499 ;;		On exit  : 0/0
  1500 ;;		Unchanged: 0/0
  1501 ;; Data sizes:     COMMON   BANK0   BANK1   BANK3   BANK2
  1502 ;;      Params:         0       0       0       0       0
  1503 ;;      Locals:         0       0       0       0       0
  1504 ;;      Temps:          0       7       0       0       0
  1505 ;;      Totals:         0       7       0       0       0
  1506 ;;Total ram usage:        7 bytes
  1507 ;; Hardware stack levels used:    1
  1508 ;; Hardware stack levels required when called:    3
  1509 ;; This function calls:
  1510 ;;		_dedo1_1
  1511 ;;		_dedo1_2
  1512 ;;		_dedo1_3
  1513 ;;		_dedo2_1
  1514 ;;		_dedo2_2
  1515 ;;		_dedo2_3
  1516 ;;		_dedo3_1
  1517 ;;		_dedo3_2
  1518 ;;		_dedo3_3
  1519 ;;		_menu
  1520 ;;		_read_eeprom
  1521 ;;		_write_eeprom
  1522 ;; This function is called by:
  1523 ;;		Interrupt level 1
  1524 ;; This function uses a non-reentrant model
  1525 ;;
  1526                           
  1527                           
  1528                           ;psect for function _isr
  1529  0025                     _isr:
  1530  0025                     i1l1694:
  1531                           
  1532                           ;Proyecto02.c: 78:        if(PIR1bits.ADIF == 1){
  1533  0025  1F0C               	btfss	12,6	;volatile
  1534  0026  2828               	goto	u82_21
  1535  0027  2829               	goto	u82_20
  1536  0028                     u82_21:
  1537  0028  2969               	goto	i1l1766
  1538  0029                     u82_20:
  1539  0029                     i1l1696:
  1540                           
  1541                           ;Proyecto02.c: 79:        if(ADCON0bits.CHS == 0) {
  1542  0029  0C1F               	rrf	31,w	;volatile
  1543  002A  00B5               	movwf	??_isr
  1544  002B  0C35               	rrf	??_isr,w
  1545  002C  390F               	andlw	15
  1546  002D  3A00               	xorlw	0
  1547  002E  1D03               	skipz
  1548  002F  2831               	goto	u83_21
  1549  0030  2832               	goto	u83_20
  1550  0031                     u83_21:
  1551  0031  2840               	goto	i1l1702
  1552  0032                     u83_20:
  1553  0032                     i1l1698:
  1554                           
  1555                           ;Proyecto02.c: 80:              CCPR2L = (ADRESH>>1)+124;
  1556  0032  081E               	movf	30,w	;volatile
  1557  0033  00B5               	movwf	??_isr
  1558  0034  1003               	clrc
  1559  0035  0C35               	rrf	??_isr,w
  1560  0036  3E7C               	addlw	124
  1561  0037  009B               	movwf	27	;volatile
  1562  0038                     i1l1700:
  1563                           
  1564                           ;Proyecto02.c: 81:              lec_pwm1 = ADRESH;
  1565  0038  081E               	movf	30,w	;volatile
  1566  0039  00B5               	movwf	??_isr
  1567  003A  01B6               	clrf	??_isr+1
  1568  003B  0835               	movf	??_isr,w
  1569  003C  00A2               	movwf	_lec_pwm1
  1570  003D  0836               	movf	??_isr+1,w
  1571  003E  00A3               	movwf	_lec_pwm1+1
  1572                           
  1573                           ;Proyecto02.c: 83:            }
  1574  003F  295F               	goto	i1l1762
  1575  0040                     i1l1702:
  1576  0040  0C1F               	rrf	31,w	;volatile
  1577  0041  00B5               	movwf	??_isr
  1578  0042  0C35               	rrf	??_isr,w
  1579  0043  390F               	andlw	15
  1580  0044  3A01               	xorlw	1
  1581  0045  1D03               	skipz
  1582  0046  2848               	goto	u84_21
  1583  0047  2849               	goto	u84_20
  1584  0048                     u84_21:
  1585  0048  2857               	goto	i1l1708
  1586  0049                     u84_20:
  1587  0049                     i1l1704:
  1588                           
  1589                           ;Proyecto02.c: 86:             CCPR1L = (ADRESH>>1)+124;
  1590  0049  081E               	movf	30,w	;volatile
  1591  004A  00B5               	movwf	??_isr
  1592  004B  1003               	clrc
  1593  004C  0C35               	rrf	??_isr,w
  1594  004D  3E7C               	addlw	124
  1595  004E  0095               	movwf	21	;volatile
  1596  004F                     i1l1706:
  1597                           
  1598                           ;Proyecto02.c: 87:             lec_pwm2 = ADRESH;
  1599  004F  081E               	movf	30,w	;volatile
  1600  0050  00B5               	movwf	??_isr
  1601  0051  01B6               	clrf	??_isr+1
  1602  0052  0835               	movf	??_isr,w
  1603  0053  00A0               	movwf	_lec_pwm2
  1604  0054  0836               	movf	??_isr+1,w
  1605  0055  00A1               	movwf	_lec_pwm2+1
  1606                           
  1607                           ;Proyecto02.c: 88:            }
  1608  0056  295F               	goto	i1l1762
  1609  0057                     i1l1708:
  1610  0057  0C1F               	rrf	31,w	;volatile
  1611  0058  00B5               	movwf	??_isr
  1612  0059  0C35               	rrf	??_isr,w
  1613  005A  390F               	andlw	15
  1614  005B  3A02               	xorlw	2
  1615  005C  1D03               	skipz
  1616  005D  285F               	goto	u85_21
  1617  005E  2860               	goto	u85_20
  1618  005F                     u85_21:
  1619  005F  28AB               	goto	i1l1726
  1620  0060                     u85_20:
  1621  0060                     i1l1710:
  1622                           
  1623                           ;Proyecto02.c: 91:             var = ADRESH;
  1624  0060  081E               	movf	30,w	;volatile
  1625  0061  00B5               	movwf	??_isr
  1626  0062  01B6               	clrf	??_isr+1
  1627  0063  0835               	movf	??_isr,w
  1628  0064  00FB               	movwf	_var
  1629  0065  0836               	movf	??_isr+1,w
  1630  0066  00FC               	movwf	_var+1
  1631  0067                     i1l1712:
  1632                           
  1633                           ;Proyecto02.c: 93:            if (var <= 85){
  1634  0067  087C               	movf	_var+1,w
  1635  0068  3A80               	xorlw	128
  1636  0069  00FF               	movwf	btemp+1
  1637  006A  3080               	movlw	128
  1638  006B  027F               	subwf	btemp+1,w
  1639  006C  1D03               	skipz
  1640  006D  2870               	goto	u86_25
  1641  006E  3056               	movlw	86
  1642  006F  027B               	subwf	_var,w
  1643  0070                     u86_25:
  1644  0070  1803               	skipnc
  1645  0071  2873               	goto	u86_21
  1646  0072  2874               	goto	u86_20
  1647  0073                     u86_21:
  1648  0073  2879               	goto	i1l1716
  1649  0074                     u86_20:
  1650  0074                     i1l1714:
  1651                           
  1652                           ;Proyecto02.c: 94:               dedo1_3();
  1653  0074  120A  118A  25CB  120A  118A  	fcall	_dedo1_3
  1654  0079                     i1l1716:
  1655                           
  1656                           ;Proyecto02.c: 97:            if ((var <= 170)&&(var >= 86)){
  1657  0079  087C               	movf	_var+1,w
  1658  007A  3A80               	xorlw	128
  1659  007B  00FF               	movwf	btemp+1
  1660  007C  3080               	movlw	128
  1661  007D  027F               	subwf	btemp+1,w
  1662  007E  1D03               	skipz
  1663  007F  2882               	goto	u87_25
  1664  0080  30AB               	movlw	171
  1665  0081  027B               	subwf	_var,w
  1666  0082                     u87_25:
  1667  0082  1803               	skipnc
  1668  0083  2885               	goto	u87_21
  1669  0084  2886               	goto	u87_20
  1670  0085                     u87_21:
  1671  0085  2898               	goto	i1l1722
  1672  0086                     u87_20:
  1673  0086                     i1l1718:
  1674  0086  087C               	movf	_var+1,w
  1675  0087  3A80               	xorlw	128
  1676  0088  00FF               	movwf	btemp+1
  1677  0089  3080               	movlw	128
  1678  008A  027F               	subwf	btemp+1,w
  1679  008B  1D03               	skipz
  1680  008C  288F               	goto	u88_25
  1681  008D  3056               	movlw	86
  1682  008E  027B               	subwf	_var,w
  1683  008F                     u88_25:
  1684  008F  1C03               	skipc
  1685  0090  2892               	goto	u88_21
  1686  0091  2893               	goto	u88_20
  1687  0092                     u88_21:
  1688  0092  2898               	goto	i1l1722
  1689  0093                     u88_20:
  1690  0093                     i1l1720:
  1691                           
  1692                           ;Proyecto02.c: 98:                dedo1_2();
  1693  0093  120A  158A  2751  120A  118A  	fcall	_dedo1_2
  1694  0098                     i1l1722:
  1695                           
  1696                           ;Proyecto02.c: 100:             if (var >= 171){
  1697  0098  087C               	movf	_var+1,w
  1698  0099  3A80               	xorlw	128
  1699  009A  00FF               	movwf	btemp+1
  1700  009B  3080               	movlw	128
  1701  009C  027F               	subwf	btemp+1,w
  1702  009D  1D03               	skipz
  1703  009E  28A1               	goto	u89_25
  1704  009F  30AB               	movlw	171
  1705  00A0  027B               	subwf	_var,w
  1706  00A1                     u89_25:
  1707  00A1  1C03               	skipc
  1708  00A2  28A4               	goto	u89_21
  1709  00A3  28A5               	goto	u89_20
  1710  00A4                     u89_21:
  1711  00A4  295F               	goto	i1l1762
  1712  00A5                     u89_20:
  1713  00A5                     i1l1724:
  1714                           
  1715                           ;Proyecto02.c: 101:                dedo1_1();
  1716  00A5  120A  118A  25E4  120A  118A  	fcall	_dedo1_1
  1717  00AA  295F               	goto	i1l1762
  1718  00AB                     i1l1726:
  1719  00AB  0C1F               	rrf	31,w	;volatile
  1720  00AC  00B5               	movwf	??_isr
  1721  00AD  0C35               	rrf	??_isr,w
  1722  00AE  390F               	andlw	15
  1723  00AF  3A03               	xorlw	3
  1724  00B0  1D03               	skipz
  1725  00B1  28B3               	goto	u90_21
  1726  00B2  28B4               	goto	u90_20
  1727  00B3                     u90_21:
  1728  00B3  2905               	goto	i1l1744
  1729  00B4                     u90_20:
  1730  00B4                     i1l1728:
  1731                           
  1732                           ;Proyecto02.c: 105:             var1 = ADRESH;
  1733  00B4  081E               	movf	30,w	;volatile
  1734  00B5  00B5               	movwf	??_isr
  1735  00B6  01B6               	clrf	??_isr+1
  1736  00B7  0835               	movf	??_isr,w
  1737  00B8  00B2               	movwf	_var1
  1738  00B9  0836               	movf	??_isr+1,w
  1739  00BA  00B3               	movwf	_var1+1
  1740  00BB                     i1l1730:
  1741                           
  1742                           ;Proyecto02.c: 107:            if (var1 <= 85){
  1743  00BB  0833               	movf	_var1+1,w
  1744  00BC  3A80               	xorlw	128
  1745  00BD  00FF               	movwf	btemp+1
  1746  00BE  3080               	movlw	128
  1747  00BF  027F               	subwf	btemp+1,w
  1748  00C0  1D03               	skipz
  1749  00C1  28C4               	goto	u91_25
  1750  00C2  3056               	movlw	86
  1751  00C3  0232               	subwf	_var1,w
  1752  00C4                     u91_25:
  1753  00C4  1803               	skipnc
  1754  00C5  28C7               	goto	u91_21
  1755  00C6  28C8               	goto	u91_20
  1756  00C7                     u91_21:
  1757  00C7  28CD               	goto	i1l1734
  1758  00C8                     u91_20:
  1759  00C8                     i1l1732:
  1760                           
  1761                           ;Proyecto02.c: 108:               dedo2_3();
  1762  00C8  120A  158A  279C  120A  118A  	fcall	_dedo2_3
  1763  00CD                     i1l1734:
  1764                           
  1765                           ;Proyecto02.c: 111:            if ((var1 <= 170)&&(var1 >= 86)){
  1766  00CD  1283               	bcf	3,5	;RP0=0, select bank0
  1767  00CE  1303               	bcf	3,6	;RP1=0, select bank0
  1768  00CF  0833               	movf	_var1+1,w
  1769  00D0  3A80               	xorlw	128
  1770  00D1  00FF               	movwf	btemp+1
  1771  00D2  3080               	movlw	128
  1772  00D3  027F               	subwf	btemp+1,w
  1773  00D4  1D03               	skipz
  1774  00D5  28D8               	goto	u92_25
  1775  00D6  30AB               	movlw	171
  1776  00D7  0232               	subwf	_var1,w
  1777  00D8                     u92_25:
  1778  00D8  1803               	skipnc
  1779  00D9  28DB               	goto	u92_21
  1780  00DA  28DC               	goto	u92_20
  1781  00DB                     u92_21:
  1782  00DB  28F0               	goto	i1l1740
  1783  00DC                     u92_20:
  1784  00DC                     i1l1736:
  1785  00DC  1283               	bcf	3,5	;RP0=0, select bank0
  1786  00DD  1303               	bcf	3,6	;RP1=0, select bank0
  1787  00DE  0833               	movf	_var1+1,w
  1788  00DF  3A80               	xorlw	128
  1789  00E0  00FF               	movwf	btemp+1
  1790  00E1  3080               	movlw	128
  1791  00E2  027F               	subwf	btemp+1,w
  1792  00E3  1D03               	skipz
  1793  00E4  28E7               	goto	u93_25
  1794  00E5  3056               	movlw	86
  1795  00E6  0232               	subwf	_var1,w
  1796  00E7                     u93_25:
  1797  00E7  1C03               	skipc
  1798  00E8  28EA               	goto	u93_21
  1799  00E9  28EB               	goto	u93_20
  1800  00EA                     u93_21:
  1801  00EA  28F0               	goto	i1l1740
  1802  00EB                     u93_20:
  1803  00EB                     i1l1738:
  1804                           
  1805                           ;Proyecto02.c: 112:                dedo2_2();
  1806  00EB  120A  158A  2783  120A  118A  	fcall	_dedo2_2
  1807  00F0                     i1l1740:
  1808                           
  1809                           ;Proyecto02.c: 114:             if (var1 >= 171){
  1810  00F0  1283               	bcf	3,5	;RP0=0, select bank0
  1811  00F1  1303               	bcf	3,6	;RP1=0, select bank0
  1812  00F2  0833               	movf	_var1+1,w
  1813  00F3  3A80               	xorlw	128
  1814  00F4  00FF               	movwf	btemp+1
  1815  00F5  3080               	movlw	128
  1816  00F6  027F               	subwf	btemp+1,w
  1817  00F7  1D03               	skipz
  1818  00F8  28FB               	goto	u94_25
  1819  00F9  30AB               	movlw	171
  1820  00FA  0232               	subwf	_var1,w
  1821  00FB                     u94_25:
  1822  00FB  1C03               	skipc
  1823  00FC  28FE               	goto	u94_21
  1824  00FD  28FF               	goto	u94_20
  1825  00FE                     u94_21:
  1826  00FE  295F               	goto	i1l1762
  1827  00FF                     u94_20:
  1828  00FF                     i1l1742:
  1829                           
  1830                           ;Proyecto02.c: 115:                dedo2_1();
  1831  00FF  120A  158A  276A  120A  118A  	fcall	_dedo2_1
  1832  0104  295F               	goto	i1l1762
  1833  0105                     i1l1744:
  1834  0105  0C1F               	rrf	31,w	;volatile
  1835  0106  00B5               	movwf	??_isr
  1836  0107  0C35               	rrf	??_isr,w
  1837  0108  390F               	andlw	15
  1838  0109  3A04               	xorlw	4
  1839  010A  1D03               	skipz
  1840  010B  290D               	goto	u95_21
  1841  010C  290E               	goto	u95_20
  1842  010D                     u95_21:
  1843  010D  295F               	goto	i1l155
  1844  010E                     u95_20:
  1845  010E                     i1l1746:
  1846                           
  1847                           ;Proyecto02.c: 119:             var2 = ADRESH;
  1848  010E  081E               	movf	30,w	;volatile
  1849  010F  00B5               	movwf	??_isr
  1850  0110  01B6               	clrf	??_isr+1
  1851  0111  0835               	movf	??_isr,w
  1852  0112  00B0               	movwf	_var2
  1853  0113  0836               	movf	??_isr+1,w
  1854  0114  00B1               	movwf	_var2+1
  1855  0115                     i1l1748:
  1856                           
  1857                           ;Proyecto02.c: 121:            if (var2 <= 85){
  1858  0115  0831               	movf	_var2+1,w
  1859  0116  3A80               	xorlw	128
  1860  0117  00FF               	movwf	btemp+1
  1861  0118  3080               	movlw	128
  1862  0119  027F               	subwf	btemp+1,w
  1863  011A  1D03               	skipz
  1864  011B  291E               	goto	u96_25
  1865  011C  3056               	movlw	86
  1866  011D  0230               	subwf	_var2,w
  1867  011E                     u96_25:
  1868  011E  1803               	skipnc
  1869  011F  2921               	goto	u96_21
  1870  0120  2922               	goto	u96_20
  1871  0121                     u96_21:
  1872  0121  2927               	goto	i1l1752
  1873  0122                     u96_20:
  1874  0122                     i1l1750:
  1875                           
  1876                           ;Proyecto02.c: 122:               dedo3_3();
  1877  0122  120A  158A  27E7  120A  118A  	fcall	_dedo3_3
  1878  0127                     i1l1752:
  1879                           
  1880                           ;Proyecto02.c: 124:            if ((var2 <= 170)&&(var2 >= 86)){
  1881  0127  1283               	bcf	3,5	;RP0=0, select bank0
  1882  0128  1303               	bcf	3,6	;RP1=0, select bank0
  1883  0129  0831               	movf	_var2+1,w
  1884  012A  3A80               	xorlw	128
  1885  012B  00FF               	movwf	btemp+1
  1886  012C  3080               	movlw	128
  1887  012D  027F               	subwf	btemp+1,w
  1888  012E  1D03               	skipz
  1889  012F  2932               	goto	u97_25
  1890  0130  30AB               	movlw	171
  1891  0131  0230               	subwf	_var2,w
  1892  0132                     u97_25:
  1893  0132  1803               	skipnc
  1894  0133  2935               	goto	u97_21
  1895  0134  2936               	goto	u97_20
  1896  0135                     u97_21:
  1897  0135  294A               	goto	i1l1758
  1898  0136                     u97_20:
  1899  0136                     i1l1754:
  1900  0136  1283               	bcf	3,5	;RP0=0, select bank0
  1901  0137  1303               	bcf	3,6	;RP1=0, select bank0
  1902  0138  0831               	movf	_var2+1,w
  1903  0139  3A80               	xorlw	128
  1904  013A  00FF               	movwf	btemp+1
  1905  013B  3080               	movlw	128
  1906  013C  027F               	subwf	btemp+1,w
  1907  013D  1D03               	skipz
  1908  013E  2941               	goto	u98_25
  1909  013F  3056               	movlw	86
  1910  0140  0230               	subwf	_var2,w
  1911  0141                     u98_25:
  1912  0141  1C03               	skipc
  1913  0142  2944               	goto	u98_21
  1914  0143  2945               	goto	u98_20
  1915  0144                     u98_21:
  1916  0144  294A               	goto	i1l1758
  1917  0145                     u98_20:
  1918  0145                     i1l1756:
  1919                           
  1920                           ;Proyecto02.c: 125:                dedo3_2();
  1921  0145  120A  158A  27CE  120A  118A  	fcall	_dedo3_2
  1922  014A                     i1l1758:
  1923                           
  1924                           ;Proyecto02.c: 127:             if (var2 >= 171){
  1925  014A  1283               	bcf	3,5	;RP0=0, select bank0
  1926  014B  1303               	bcf	3,6	;RP1=0, select bank0
  1927  014C  0831               	movf	_var2+1,w
  1928  014D  3A80               	xorlw	128
  1929  014E  00FF               	movwf	btemp+1
  1930  014F  3080               	movlw	128
  1931  0150  027F               	subwf	btemp+1,w
  1932  0151  1D03               	skipz
  1933  0152  2955               	goto	u99_25
  1934  0153  30AB               	movlw	171
  1935  0154  0230               	subwf	_var2,w
  1936  0155                     u99_25:
  1937  0155  1C03               	skipc
  1938  0156  2958               	goto	u99_21
  1939  0157  2959               	goto	u99_20
  1940  0158                     u99_21:
  1941  0158  295F               	goto	i1l155
  1942  0159                     u99_20:
  1943  0159                     i1l1760:
  1944                           
  1945                           ;Proyecto02.c: 128:                dedo3_1();
  1946  0159  120A  158A  27B5  120A  118A  	fcall	_dedo3_1
  1947  015E  295F               	goto	i1l1762
  1948  015F                     i1l155:
  1949  015F                     i1l1762:
  1950                           
  1951                           ;Proyecto02.c: 132:            _delay((unsigned long)((50)*(8000000/4000000.0)));
  1952  015F  3020               	movlw	32
  1953  0160  1283               	bcf	3,5	;RP0=0, select bank0
  1954  0161  1303               	bcf	3,6	;RP1=0, select bank0
  1955  0162  00B5               	movwf	??_isr
  1956  0163                     u119_27:
  1957  0163  0BB5               	decfsz	??_isr,f
  1958  0164  2963               	goto	u119_27
  1959  0165  0000               	nop
  1960  0166                     i1l1764:
  1961                           
  1962                           ;Proyecto02.c: 133:            PIR1bits.ADIF = 0;
  1963  0166  1283               	bcf	3,5	;RP0=0, select bank0
  1964  0167  1303               	bcf	3,6	;RP1=0, select bank0
  1965  0168  130C               	bcf	12,6	;volatile
  1966  0169                     i1l1766:
  1967                           
  1968                           ;Proyecto02.c: 137:        if (RBIF == 1)
  1969  0169  1C0B               	btfss	11,0	;volatile
  1970  016A  296C               	goto	u100_21
  1971  016B  296D               	goto	u100_20
  1972  016C                     u100_21:
  1973  016C  2B27               	goto	i1l189
  1974  016D                     u100_20:
  1975  016D                     i1l1768:
  1976                           
  1977                           ;Proyecto02.c: 138:     {;Proyecto02.c: 139:         if (PORTBbits.RB1 == 0)
  1978  016D  1886               	btfsc	6,1	;volatile
  1979  016E  2970               	goto	u101_21
  1980  016F  2971               	goto	u101_20
  1981  0170                     u101_21:
  1982  0170  2ABF               	goto	i1l171
  1983  0171                     u101_20:
  1984  0171                     i1l1770:
  1985                           
  1986                           ;Proyecto02.c: 140:         {;Proyecto02.c: 141:             ADCON0bits.ADON = 0;
  1987  0171  101F               	bcf	31,0	;volatile
  1988                           
  1989                           ;Proyecto02.c: 142:             PORTBbits.RB7 = 1;
  1990  0172  1786               	bsf	6,7	;volatile
  1991  0173                     i1l1772:
  1992                           
  1993                           ;Proyecto02.c: 143:             lectura_01 = read_eeprom (0x17);
  1994  0173  3017               	movlw	23
  1995  0174  120A  158A  2740  120A  118A  	fcall	_read_eeprom
  1996  0179  1283               	bcf	3,5	;RP0=0, select bank0
  1997  017A  1303               	bcf	3,6	;RP1=0, select bank0
  1998  017B  00B5               	movwf	??_isr
  1999  017C  01B6               	clrf	??_isr+1
  2000  017D  0835               	movf	??_isr,w
  2001  017E  00AC               	movwf	_lectura_01
  2002  017F  0836               	movf	??_isr+1,w
  2003  0180  00AD               	movwf	_lectura_01+1
  2004                           
  2005                           ;Proyecto02.c: 144:             lectura_02 = read_eeprom (0x18);
  2006  0181  3018               	movlw	24
  2007  0182  120A  158A  2740  120A  118A  	fcall	_read_eeprom
  2008  0187  1283               	bcf	3,5	;RP0=0, select bank0
  2009  0188  1303               	bcf	3,6	;RP1=0, select bank0
  2010  0189  00B5               	movwf	??_isr
  2011  018A  01B6               	clrf	??_isr+1
  2012  018B  0835               	movf	??_isr,w
  2013  018C  00AA               	movwf	_lectura_02
  2014  018D  0836               	movf	??_isr+1,w
  2015  018E  00AB               	movwf	_lectura_02+1
  2016                           
  2017                           ;Proyecto02.c: 145:             lectura_03 = read_eeprom (0x19);
  2018  018F  3019               	movlw	25
  2019  0190  120A  158A  2740  120A  118A  	fcall	_read_eeprom
  2020  0195  1283               	bcf	3,5	;RP0=0, select bank0
  2021  0196  1303               	bcf	3,6	;RP1=0, select bank0
  2022  0197  00B5               	movwf	??_isr
  2023  0198  01B6               	clrf	??_isr+1
  2024  0199  0835               	movf	??_isr,w
  2025  019A  00A8               	movwf	_lectura_03
  2026  019B  0836               	movf	??_isr+1,w
  2027  019C  00A9               	movwf	_lectura_03+1
  2028                           
  2029                           ;Proyecto02.c: 146:             lectura_04 = read_eeprom (0x20);
  2030  019D  3020               	movlw	32
  2031  019E  120A  158A  2740  120A  118A  	fcall	_read_eeprom
  2032  01A3  1283               	bcf	3,5	;RP0=0, select bank0
  2033  01A4  1303               	bcf	3,6	;RP1=0, select bank0
  2034  01A5  00B5               	movwf	??_isr
  2035  01A6  01B6               	clrf	??_isr+1
  2036  01A7  0835               	movf	??_isr,w
  2037  01A8  00A6               	movwf	_lectura_04
  2038  01A9  0836               	movf	??_isr+1,w
  2039  01AA  00A7               	movwf	_lectura_04+1
  2040                           
  2041                           ;Proyecto02.c: 147:             lectura_05 = read_eeprom (0x21);
  2042  01AB  3021               	movlw	33
  2043  01AC  120A  158A  2740  120A  118A  	fcall	_read_eeprom
  2044  01B1  1283               	bcf	3,5	;RP0=0, select bank0
  2045  01B2  1303               	bcf	3,6	;RP1=0, select bank0
  2046  01B3  00B5               	movwf	??_isr
  2047  01B4  01B6               	clrf	??_isr+1
  2048  01B5  0835               	movf	??_isr,w
  2049  01B6  00A4               	movwf	_lectura_05
  2050  01B7  0836               	movf	??_isr+1,w
  2051  01B8  00A5               	movwf	_lectura_05+1
  2052  01B9                     i1l1774:
  2053                           
  2054                           ;Proyecto02.c: 151:             CCPR1L = (lectura_04>>1)+124;
  2055  01B9  0827               	movf	_lectura_04+1,w
  2056  01BA  00B6               	movwf	??_isr+1
  2057  01BB  0826               	movf	_lectura_04,w
  2058  01BC  00B5               	movwf	??_isr
  2059  01BD  0D36               	rlf	??_isr+1,w
  2060  01BE  0CB6               	rrf	??_isr+1,f
  2061  01BF  0CB5               	rrf	??_isr,f
  2062  01C0  0835               	movf	??_isr,w
  2063  01C1  3E7C               	addlw	124
  2064  01C2  0095               	movwf	21	;volatile
  2065  01C3                     i1l1776:
  2066                           
  2067                           ;Proyecto02.c: 152:             CCPR2L = (lectura_05>>1)+124;
  2068  01C3  0825               	movf	_lectura_05+1,w
  2069  01C4  00B6               	movwf	??_isr+1
  2070  01C5  0824               	movf	_lectura_05,w
  2071  01C6  00B5               	movwf	??_isr
  2072  01C7  0D36               	rlf	??_isr+1,w
  2073  01C8  0CB6               	rrf	??_isr+1,f
  2074  01C9  0CB5               	rrf	??_isr,f
  2075  01CA  0835               	movf	??_isr,w
  2076  01CB  3E7C               	addlw	124
  2077  01CC  009B               	movwf	27	;volatile
  2078  01CD                     i1l1778:
  2079                           
  2080                           ;Proyecto02.c: 155:             if (lectura_01 <= 85){
  2081  01CD  082D               	movf	_lectura_01+1,w
  2082  01CE  3A80               	xorlw	128
  2083  01CF  00FF               	movwf	btemp+1
  2084  01D0  3080               	movlw	128
  2085  01D1  027F               	subwf	btemp+1,w
  2086  01D2  1D03               	skipz
  2087  01D3  29D6               	goto	u102_25
  2088  01D4  3056               	movlw	86
  2089  01D5  022C               	subwf	_lectura_01,w
  2090  01D6                     u102_25:
  2091  01D6  1803               	skipnc
  2092  01D7  29D9               	goto	u102_21
  2093  01D8  29DA               	goto	u102_20
  2094  01D9                     u102_21:
  2095  01D9  29DF               	goto	i1l1782
  2096  01DA                     u102_20:
  2097  01DA                     i1l1780:
  2098                           
  2099                           ;Proyecto02.c: 156:               dedo1_3();
  2100  01DA  120A  118A  25CB  120A  118A  	fcall	_dedo1_3
  2101  01DF                     i1l1782:
  2102                           
  2103                           ;Proyecto02.c: 159:            if ((lectura_01 <= 170)&&(lectura_01 >= 86)){
  2104  01DF  1283               	bcf	3,5	;RP0=0, select bank0
  2105  01E0  1303               	bcf	3,6	;RP1=0, select bank0
  2106  01E1  082D               	movf	_lectura_01+1,w
  2107  01E2  3A80               	xorlw	128
  2108  01E3  00FF               	movwf	btemp+1
  2109  01E4  3080               	movlw	128
  2110  01E5  027F               	subwf	btemp+1,w
  2111  01E6  1D03               	skipz
  2112  01E7  29EA               	goto	u103_25
  2113  01E8  30AB               	movlw	171
  2114  01E9  022C               	subwf	_lectura_01,w
  2115  01EA                     u103_25:
  2116  01EA  1803               	skipnc
  2117  01EB  29ED               	goto	u103_21
  2118  01EC  29EE               	goto	u103_20
  2119  01ED                     u103_21:
  2120  01ED  2A02               	goto	i1l1788
  2121  01EE                     u103_20:
  2122  01EE                     i1l1784:
  2123  01EE  1283               	bcf	3,5	;RP0=0, select bank0
  2124  01EF  1303               	bcf	3,6	;RP1=0, select bank0
  2125  01F0  082D               	movf	_lectura_01+1,w
  2126  01F1  3A80               	xorlw	128
  2127  01F2  00FF               	movwf	btemp+1
  2128  01F3  3080               	movlw	128
  2129  01F4  027F               	subwf	btemp+1,w
  2130  01F5  1D03               	skipz
  2131  01F6  29F9               	goto	u104_25
  2132  01F7  3056               	movlw	86
  2133  01F8  022C               	subwf	_lectura_01,w
  2134  01F9                     u104_25:
  2135  01F9  1C03               	skipc
  2136  01FA  29FC               	goto	u104_21
  2137  01FB  29FD               	goto	u104_20
  2138  01FC                     u104_21:
  2139  01FC  2A02               	goto	i1l1788
  2140  01FD                     u104_20:
  2141  01FD                     i1l1786:
  2142                           
  2143                           ;Proyecto02.c: 160:                dedo1_2();
  2144  01FD  120A  158A  2751  120A  118A  	fcall	_dedo1_2
  2145  0202                     i1l1788:
  2146                           
  2147                           ;Proyecto02.c: 162:             if (lectura_01 >= 171){
  2148  0202  1283               	bcf	3,5	;RP0=0, select bank0
  2149  0203  1303               	bcf	3,6	;RP1=0, select bank0
  2150  0204  082D               	movf	_lectura_01+1,w
  2151  0205  3A80               	xorlw	128
  2152  0206  00FF               	movwf	btemp+1
  2153  0207  3080               	movlw	128
  2154  0208  027F               	subwf	btemp+1,w
  2155  0209  1D03               	skipz
  2156  020A  2A0D               	goto	u105_25
  2157  020B  30AB               	movlw	171
  2158  020C  022C               	subwf	_lectura_01,w
  2159  020D                     u105_25:
  2160  020D  1C03               	skipc
  2161  020E  2A10               	goto	u105_21
  2162  020F  2A11               	goto	u105_20
  2163  0210                     u105_21:
  2164  0210  2A16               	goto	i1l1792
  2165  0211                     u105_20:
  2166  0211                     i1l1790:
  2167                           
  2168                           ;Proyecto02.c: 163:                dedo1_1();
  2169  0211  120A  118A  25E4  120A  118A  	fcall	_dedo1_1
  2170  0216                     i1l1792:
  2171                           
  2172                           ;Proyecto02.c: 165:             if (lectura_02 <= 85){
  2173  0216  1283               	bcf	3,5	;RP0=0, select bank0
  2174  0217  1303               	bcf	3,6	;RP1=0, select bank0
  2175  0218  082B               	movf	_lectura_02+1,w
  2176  0219  3A80               	xorlw	128
  2177  021A  00FF               	movwf	btemp+1
  2178  021B  3080               	movlw	128
  2179  021C  027F               	subwf	btemp+1,w
  2180  021D  1D03               	skipz
  2181  021E  2A21               	goto	u106_25
  2182  021F  3056               	movlw	86
  2183  0220  022A               	subwf	_lectura_02,w
  2184  0221                     u106_25:
  2185  0221  1803               	skipnc
  2186  0222  2A24               	goto	u106_21
  2187  0223  2A25               	goto	u106_20
  2188  0224                     u106_21:
  2189  0224  2A2A               	goto	i1l1796
  2190  0225                     u106_20:
  2191  0225                     i1l1794:
  2192                           
  2193                           ;Proyecto02.c: 166:               dedo2_3();
  2194  0225  120A  158A  279C  120A  118A  	fcall	_dedo2_3
  2195  022A                     i1l1796:
  2196                           
  2197                           ;Proyecto02.c: 169:            if ((lectura_02 <= 170)&&(lectura_02 >= 86)){
  2198  022A  1283               	bcf	3,5	;RP0=0, select bank0
  2199  022B  1303               	bcf	3,6	;RP1=0, select bank0
  2200  022C  082B               	movf	_lectura_02+1,w
  2201  022D  3A80               	xorlw	128
  2202  022E  00FF               	movwf	btemp+1
  2203  022F  3080               	movlw	128
  2204  0230  027F               	subwf	btemp+1,w
  2205  0231  1D03               	skipz
  2206  0232  2A35               	goto	u107_25
  2207  0233  30AB               	movlw	171
  2208  0234  022A               	subwf	_lectura_02,w
  2209  0235                     u107_25:
  2210  0235  1803               	skipnc
  2211  0236  2A38               	goto	u107_21
  2212  0237  2A39               	goto	u107_20
  2213  0238                     u107_21:
  2214  0238  2A4D               	goto	i1l1802
  2215  0239                     u107_20:
  2216  0239                     i1l1798:
  2217  0239  1283               	bcf	3,5	;RP0=0, select bank0
  2218  023A  1303               	bcf	3,6	;RP1=0, select bank0
  2219  023B  082B               	movf	_lectura_02+1,w
  2220  023C  3A80               	xorlw	128
  2221  023D  00FF               	movwf	btemp+1
  2222  023E  3080               	movlw	128
  2223  023F  027F               	subwf	btemp+1,w
  2224  0240  1D03               	skipz
  2225  0241  2A44               	goto	u108_25
  2226  0242  3056               	movlw	86
  2227  0243  022A               	subwf	_lectura_02,w
  2228  0244                     u108_25:
  2229  0244  1C03               	skipc
  2230  0245  2A47               	goto	u108_21
  2231  0246  2A48               	goto	u108_20
  2232  0247                     u108_21:
  2233  0247  2A4D               	goto	i1l1802
  2234  0248                     u108_20:
  2235  0248                     i1l1800:
  2236                           
  2237                           ;Proyecto02.c: 170:                dedo2_2();
  2238  0248  120A  158A  2783  120A  118A  	fcall	_dedo2_2
  2239  024D                     i1l1802:
  2240                           
  2241                           ;Proyecto02.c: 172:             if (lectura_02 >= 171){
  2242  024D  1283               	bcf	3,5	;RP0=0, select bank0
  2243  024E  1303               	bcf	3,6	;RP1=0, select bank0
  2244  024F  082B               	movf	_lectura_02+1,w
  2245  0250  3A80               	xorlw	128
  2246  0251  00FF               	movwf	btemp+1
  2247  0252  3080               	movlw	128
  2248  0253  027F               	subwf	btemp+1,w
  2249  0254  1D03               	skipz
  2250  0255  2A58               	goto	u109_25
  2251  0256  30AB               	movlw	171
  2252  0257  022A               	subwf	_lectura_02,w
  2253  0258                     u109_25:
  2254  0258  1C03               	skipc
  2255  0259  2A5B               	goto	u109_21
  2256  025A  2A5C               	goto	u109_20
  2257  025B                     u109_21:
  2258  025B  2A61               	goto	i1l1806
  2259  025C                     u109_20:
  2260  025C                     i1l1804:
  2261                           
  2262                           ;Proyecto02.c: 173:                dedo2_1();
  2263  025C  120A  158A  276A  120A  118A  	fcall	_dedo2_1
  2264  0261                     i1l1806:
  2265                           
  2266                           ;Proyecto02.c: 175:             if (lectura_03 <= 85){
  2267  0261  1283               	bcf	3,5	;RP0=0, select bank0
  2268  0262  1303               	bcf	3,6	;RP1=0, select bank0
  2269  0263  0829               	movf	_lectura_03+1,w
  2270  0264  3A80               	xorlw	128
  2271  0265  00FF               	movwf	btemp+1
  2272  0266  3080               	movlw	128
  2273  0267  027F               	subwf	btemp+1,w
  2274  0268  1D03               	skipz
  2275  0269  2A6C               	goto	u110_25
  2276  026A  3056               	movlw	86
  2277  026B  0228               	subwf	_lectura_03,w
  2278  026C                     u110_25:
  2279  026C  1803               	skipnc
  2280  026D  2A6F               	goto	u110_21
  2281  026E  2A70               	goto	u110_20
  2282  026F                     u110_21:
  2283  026F  2A75               	goto	i1l1810
  2284  0270                     u110_20:
  2285  0270                     i1l1808:
  2286                           
  2287                           ;Proyecto02.c: 176:               dedo3_3();
  2288  0270  120A  158A  27E7  120A  118A  	fcall	_dedo3_3
  2289  0275                     i1l1810:
  2290                           
  2291                           ;Proyecto02.c: 178:            if ((lectura_03 <= 170)&&(lectura_03 >= 86)){
  2292  0275  1283               	bcf	3,5	;RP0=0, select bank0
  2293  0276  1303               	bcf	3,6	;RP1=0, select bank0
  2294  0277  0829               	movf	_lectura_03+1,w
  2295  0278  3A80               	xorlw	128
  2296  0279  00FF               	movwf	btemp+1
  2297  027A  3080               	movlw	128
  2298  027B  027F               	subwf	btemp+1,w
  2299  027C  1D03               	skipz
  2300  027D  2A80               	goto	u111_25
  2301  027E  30AB               	movlw	171
  2302  027F  0228               	subwf	_lectura_03,w
  2303  0280                     u111_25:
  2304  0280  1803               	skipnc
  2305  0281  2A83               	goto	u111_21
  2306  0282  2A84               	goto	u111_20
  2307  0283                     u111_21:
  2308  0283  2A98               	goto	i1l1816
  2309  0284                     u111_20:
  2310  0284                     i1l1812:
  2311  0284  1283               	bcf	3,5	;RP0=0, select bank0
  2312  0285  1303               	bcf	3,6	;RP1=0, select bank0
  2313  0286  0829               	movf	_lectura_03+1,w
  2314  0287  3A80               	xorlw	128
  2315  0288  00FF               	movwf	btemp+1
  2316  0289  3080               	movlw	128
  2317  028A  027F               	subwf	btemp+1,w
  2318  028B  1D03               	skipz
  2319  028C  2A8F               	goto	u112_25
  2320  028D  3056               	movlw	86
  2321  028E  0228               	subwf	_lectura_03,w
  2322  028F                     u112_25:
  2323  028F  1C03               	skipc
  2324  0290  2A92               	goto	u112_21
  2325  0291  2A93               	goto	u112_20
  2326  0292                     u112_21:
  2327  0292  2A98               	goto	i1l1816
  2328  0293                     u112_20:
  2329  0293                     i1l1814:
  2330                           
  2331                           ;Proyecto02.c: 179:                dedo3_2();
  2332  0293  120A  158A  27CE  120A  118A  	fcall	_dedo3_2
  2333  0298                     i1l1816:
  2334                           
  2335                           ;Proyecto02.c: 181:             if (lectura_03 >= 171){
  2336  0298  1283               	bcf	3,5	;RP0=0, select bank0
  2337  0299  1303               	bcf	3,6	;RP1=0, select bank0
  2338  029A  0829               	movf	_lectura_03+1,w
  2339  029B  3A80               	xorlw	128
  2340  029C  00FF               	movwf	btemp+1
  2341  029D  3080               	movlw	128
  2342  029E  027F               	subwf	btemp+1,w
  2343  029F  1D03               	skipz
  2344  02A0  2AA3               	goto	u113_25
  2345  02A1  30AB               	movlw	171
  2346  02A2  0228               	subwf	_lectura_03,w
  2347  02A3                     u113_25:
  2348  02A3  1C03               	skipc
  2349  02A4  2AA6               	goto	u113_21
  2350  02A5  2AA7               	goto	u113_20
  2351  02A6                     u113_21:
  2352  02A6  2AAC               	goto	i1l1820
  2353  02A7                     u113_20:
  2354  02A7                     i1l1818:
  2355                           
  2356                           ;Proyecto02.c: 182:                dedo3_1();
  2357  02A7  120A  158A  27B5  120A  118A  	fcall	_dedo3_1
  2358  02AC                     i1l1820:
  2359                           
  2360                           ;Proyecto02.c: 184:             _delay((unsigned long)((3500)*(8000000/4000.0)));
  2361  02AC  3024               	movlw	36
  2362  02AD  1283               	bcf	3,5	;RP0=0, select bank0
  2363  02AE  1303               	bcf	3,6	;RP1=0, select bank0
  2364  02AF  00B7               	movwf	??_isr+2
  2365  02B0  3083               	movlw	131
  2366  02B1  00B6               	movwf	??_isr+1
  2367  02B2  30CE               	movlw	206
  2368  02B3  00B5               	movwf	??_isr
  2369  02B4                     u120_27:
  2370  02B4  0BB5               	decfsz	??_isr,f
  2371  02B5  2AB4               	goto	u120_27
  2372  02B6  0BB6               	decfsz	??_isr+1,f
  2373  02B7  2AB4               	goto	u120_27
  2374  02B8  0BB7               	decfsz	??_isr+2,f
  2375  02B9  2AB4               	goto	u120_27
  2376  02BA  0000               	nop
  2377  02BB                     i1l1822:
  2378                           
  2379                           ;Proyecto02.c: 185:             ADCON0bits.ADON = 1;
  2380  02BB  1283               	bcf	3,5	;RP0=0, select bank0
  2381  02BC  1303               	bcf	3,6	;RP1=0, select bank0
  2382  02BD  141F               	bsf	31,0	;volatile
  2383                           
  2384                           ;Proyecto02.c: 186:         }
  2385  02BE  2B26               	goto	i1l181
  2386  02BF                     i1l171:	
  2387                           ;Proyecto02.c: 187:         else if (PORTBbits.RB0 == 0)
  2388                           
  2389  02BF  1806               	btfsc	6,0	;volatile
  2390  02C0  2AC2               	goto	u114_21
  2391  02C1  2AC3               	goto	u114_20
  2392  02C2                     u114_21:
  2393  02C2  2B0D               	goto	i1l182
  2394  02C3                     u114_20:
  2395  02C3                     i1l1824:
  2396                           
  2397                           ;Proyecto02.c: 188:         {;Proyecto02.c: 189:             PORTBbits.RB6 = 1;
  2398  02C3  1706               	bsf	6,6	;volatile
  2399  02C4                     i1l1826:
  2400                           
  2401                           ;Proyecto02.c: 190:             write_eeprom (var, 0x17);
  2402  02C4  3017               	movlw	23
  2403  02C5  00B5               	movwf	??_isr
  2404  02C6  0835               	movf	??_isr,w
  2405  02C7  00F0               	movwf	write_eeprom@direccion
  2406  02C8  087B               	movf	_var,w
  2407  02C9  120A  118A  27DB  120A  118A  	fcall	_write_eeprom
  2408                           
  2409                           ;Proyecto02.c: 191:             write_eeprom (var1, 0x18);
  2410  02CE  3018               	movlw	24
  2411  02CF  1283               	bcf	3,5	;RP0=0, select bank0
  2412  02D0  1303               	bcf	3,6	;RP1=0, select bank0
  2413  02D1  00B5               	movwf	??_isr
  2414  02D2  0835               	movf	??_isr,w
  2415  02D3  00F0               	movwf	write_eeprom@direccion
  2416  02D4  0832               	movf	_var1,w
  2417  02D5  120A  118A  27DB  120A  118A  	fcall	_write_eeprom
  2418                           
  2419                           ;Proyecto02.c: 192:             write_eeprom (var2, 0x19);
  2420  02DA  3019               	movlw	25
  2421  02DB  1283               	bcf	3,5	;RP0=0, select bank0
  2422  02DC  1303               	bcf	3,6	;RP1=0, select bank0
  2423  02DD  00B5               	movwf	??_isr
  2424  02DE  0835               	movf	??_isr,w
  2425  02DF  00F0               	movwf	write_eeprom@direccion
  2426  02E0  0830               	movf	_var2,w
  2427  02E1  120A  118A  27DB  120A  118A  	fcall	_write_eeprom
  2428                           
  2429                           ;Proyecto02.c: 193:             write_eeprom (lec_pwm1, 0x20);
  2430  02E6  3020               	movlw	32
  2431  02E7  1283               	bcf	3,5	;RP0=0, select bank0
  2432  02E8  1303               	bcf	3,6	;RP1=0, select bank0
  2433  02E9  00B5               	movwf	??_isr
  2434  02EA  0835               	movf	??_isr,w
  2435  02EB  00F0               	movwf	write_eeprom@direccion
  2436  02EC  0822               	movf	_lec_pwm1,w
  2437  02ED  120A  118A  27DB  120A  118A  	fcall	_write_eeprom
  2438                           
  2439                           ;Proyecto02.c: 194:             write_eeprom (lec_pwm2, 0x21);
  2440  02F2  3021               	movlw	33
  2441  02F3  1283               	bcf	3,5	;RP0=0, select bank0
  2442  02F4  1303               	bcf	3,6	;RP1=0, select bank0
  2443  02F5  00B5               	movwf	??_isr
  2444  02F6  0835               	movf	??_isr,w
  2445  02F7  00F0               	movwf	write_eeprom@direccion
  2446  02F8  0820               	movf	_lec_pwm2,w
  2447  02F9  120A  118A  27DB  120A  118A  	fcall	_write_eeprom
  2448  02FE                     i1l1828:
  2449                           
  2450                           ;Proyecto02.c: 195:             _delay((unsigned long)((500)*(8000000/4000.0)));
  2451  02FE  3006               	movlw	6
  2452  02FF  1283               	bcf	3,5	;RP0=0, select bank0
  2453  0300  1303               	bcf	3,6	;RP1=0, select bank0
  2454  0301  00B7               	movwf	??_isr+2
  2455  0302  3013               	movlw	19
  2456  0303  00B6               	movwf	??_isr+1
  2457  0304  30AD               	movlw	173
  2458  0305  00B5               	movwf	??_isr
  2459  0306                     u121_27:
  2460  0306  0BB5               	decfsz	??_isr,f
  2461  0307  2B06               	goto	u121_27
  2462  0308  0BB6               	decfsz	??_isr+1,f
  2463  0309  2B06               	goto	u121_27
  2464  030A  0BB7               	decfsz	??_isr+2,f
  2465  030B  2B06               	goto	u121_27
  2466                           
  2467                           ;Proyecto02.c: 196:         }
  2468  030C  2B26               	goto	i1l181
  2469  030D                     i1l182:	
  2470                           ;Proyecto02.c: 197:         else if (PORTBbits.RB2 == 0){
  2471                           
  2472  030D  1906               	btfsc	6,2	;volatile
  2473  030E  2B10               	goto	u115_21
  2474  030F  2B11               	goto	u115_20
  2475  0310                     u115_21:
  2476  0310  2B24               	goto	i1l184
  2477  0311                     u115_20:
  2478  0311                     i1l1830:
  2479                           
  2480                           ;Proyecto02.c: 198:             flag_uart = 1;
  2481  0311  3001               	movlw	1
  2482  0312  00AE               	movwf	_flag_uart
  2483  0313  3000               	movlw	0
  2484  0314  00AF               	movwf	_flag_uart+1
  2485                           
  2486                           ;Proyecto02.c: 200:             while (flag_uart == 1){
  2487  0315  2B1B               	goto	i1l1834
  2488  0316                     i1l1832:
  2489                           
  2490                           ;Proyecto02.c: 201:                 menu();
  2491  0316  120A  118A  2334  120A  118A  	fcall	_menu
  2492  031B                     i1l1834:
  2493                           
  2494                           ;Proyecto02.c: 200:             while (flag_uart == 1){
  2495  031B  1283               	bcf	3,5	;RP0=0, select bank0
  2496  031C  1303               	bcf	3,6	;RP1=0, select bank0
  2497  031D  032E               	decf	_flag_uart,w
  2498  031E  042F               	iorwf	_flag_uart+1,w
  2499  031F  1903               	btfsc	3,2
  2500  0320  2B22               	goto	u116_21
  2501  0321  2B23               	goto	u116_20
  2502  0322                     u116_21:
  2503  0322  2B16               	goto	i1l1832
  2504  0323                     u116_20:
  2505  0323  2B26               	goto	i1l181
  2506  0324                     i1l184:	
  2507                           ;Proyecto02.c: 204:         else {
  2508                           
  2509                           
  2510                           ;Proyecto02.c: 205:             PORTBbits.RB6 = 0;
  2511  0324  1306               	bcf	6,6	;volatile
  2512                           
  2513                           ;Proyecto02.c: 206:             PORTBbits.RB7 = 0;
  2514  0325  1386               	bcf	6,7	;volatile
  2515  0326                     i1l181:
  2516                           
  2517                           ;Proyecto02.c: 208:         INTCONbits.RBIF = 0;
  2518  0326  100B               	bcf	11,0	;volatile
  2519  0327                     i1l189:
  2520  0327  1283               	bcf	3,5	;RP0=0, select bank0
  2521  0328  1303               	bcf	3,6	;RP1=0, select bank0
  2522  0329  083B               	movf	??_isr+6,w
  2523  032A  00FF               	movwf	btemp+1
  2524  032B  083A               	movf	??_isr+5,w
  2525  032C  008A               	movwf	10
  2526  032D  0839               	movf	??_isr+4,w
  2527  032E  0084               	movwf	4
  2528  032F  0E38               	swapf	??_isr+3,w
  2529  0330  0083               	movwf	3
  2530  0331  0EFE               	swapf	btemp,f
  2531  0332  0E7E               	swapf	btemp,w
  2532  0333  0009               	retfie
  2533  0334                     __end_of_isr:
  2534                           
  2535                           	psect	intentry
  2536  0004                     __pintentry:	
  2537                           ;incstack = 0
  2538                           ; Regs used in _isr: [wreg-fsr0h+status,2+status,0+btemp+1+pclath+cstack]
  2539                           
  2540  0004                     interrupt_function:
  2541  007E                     saved_w	set	btemp
  2542  0004  00FE               	movwf	btemp
  2543  0005  0E03               	swapf	3,w
  2544  0006  1283               	bcf	3,5	;RP0=0, select bank0
  2545  0007  1303               	bcf	3,6	;RP1=0, select bank0
  2546  0008  00B8               	movwf	??_isr+3
  2547  0009  0804               	movf	4,w
  2548  000A  00B9               	movwf	??_isr+4
  2549  000B  080A               	movf	10,w
  2550  000C  00BA               	movwf	??_isr+5
  2551  000D  087F               	movf	btemp+1,w
  2552  000E  00BB               	movwf	??_isr+6
  2553  000F  120A  118A  2825   	ljmp	_isr
  2554                           
  2555                           	psect	text4
  2556  07DB                     __ptext4:	
  2557 ;; *************** function _write_eeprom *****************
  2558 ;; Defined at:
  2559 ;;		line 423 in file "Proyecto02.c"
  2560 ;; Parameters:    Size  Location     Type
  2561 ;;  dato            1    wreg     unsigned char 
  2562 ;;  direccion       1    0[COMMON] unsigned char 
  2563 ;; Auto vars:     Size  Location     Type
  2564 ;;  dato            1    1[COMMON] unsigned char 
  2565 ;; Return value:  Size  Location     Type
  2566 ;;                  1    wreg      void 
  2567 ;; Registers used:
  2568 ;;		wreg
  2569 ;; Tracked objects:
  2570 ;;		On entry : 0/0
  2571 ;;		On exit  : 0/0
  2572 ;;		Unchanged: 0/0
  2573 ;; Data sizes:     COMMON   BANK0   BANK1   BANK3   BANK2
  2574 ;;      Params:         1       0       0       0       0
  2575 ;;      Locals:         1       0       0       0       0
  2576 ;;      Temps:          0       0       0       0       0
  2577 ;;      Totals:         2       0       0       0       0
  2578 ;;Total ram usage:        2 bytes
  2579 ;; Hardware stack levels used:    1
  2580 ;; This function calls:
  2581 ;;		Nothing
  2582 ;; This function is called by:
  2583 ;;		_isr
  2584 ;; This function uses a non-reentrant model
  2585 ;;
  2586                           
  2587                           
  2588                           ;psect for function _write_eeprom
  2589  07DB                     _write_eeprom:
  2590                           
  2591                           ;incstack = 0
  2592                           ; Regs used in _write_eeprom: [wreg]
  2593                           ;write_eeprom@dato stored from wreg
  2594  07DB  00F1               	movwf	write_eeprom@dato
  2595  07DC                     i1l1436:
  2596                           
  2597                           ;Proyecto02.c: 424:     EEADR = direccion;
  2598  07DC  0870               	movf	write_eeprom@direccion,w
  2599  07DD  1283               	bcf	3,5	;RP0=0, select bank2
  2600  07DE  1703               	bsf	3,6	;RP1=1, select bank2
  2601  07DF  008D               	movwf	13	;volatile
  2602                           
  2603                           ;Proyecto02.c: 425:     EEDAT = dato;
  2604  07E0  0871               	movf	write_eeprom@dato,w
  2605  07E1  008C               	movwf	12	;volatile
  2606  07E2                     i1l1438:
  2607                           
  2608                           ;Proyecto02.c: 428:     INTCONbits.GIE = 0;
  2609  07E2  138B               	bcf	11,7	;volatile
  2610  07E3                     i1l1440:
  2611                           
  2612                           ;Proyecto02.c: 430:     EECON1bits.EEPGD = 0;
  2613  07E3  1683               	bsf	3,5	;RP0=1, select bank3
  2614  07E4  1703               	bsf	3,6	;RP1=1, select bank3
  2615  07E5  138C               	bcf	12,7	;volsfr
  2616  07E6                     i1l1442:
  2617                           
  2618                           ;Proyecto02.c: 431:     EECON1bits.WREN = 1;
  2619  07E6  150C               	bsf	12,2	;volsfr
  2620                           
  2621                           ;Proyecto02.c: 434:     EECON2 = 0x55;
  2622  07E7  3055               	movlw	85
  2623  07E8  008D               	movwf	13	;volsfr
  2624                           
  2625                           ;Proyecto02.c: 435:     EECON2 = 0xAA;
  2626  07E9  30AA               	movlw	170
  2627  07EA  008D               	movwf	13	;volsfr
  2628  07EB                     i1l1444:
  2629                           
  2630                           ;Proyecto02.c: 437:     EECON1bits.WR = 1;
  2631  07EB  148C               	bsf	12,1	;volsfr
  2632  07EC                     i1l246:	
  2633                           ;Proyecto02.c: 439:     while(PIR2bits.EEIF == 0);
  2634                           
  2635  07EC  1283               	bcf	3,5	;RP0=0, select bank0
  2636  07ED  1303               	bcf	3,6	;RP1=0, select bank0
  2637  07EE  1E0D               	btfss	13,4	;volatile
  2638  07EF  2FF1               	goto	u61_21
  2639  07F0  2FF2               	goto	u61_20
  2640  07F1                     u61_21:
  2641  07F1  2FEC               	goto	i1l246
  2642  07F2                     u61_20:
  2643  07F2                     i1l248:
  2644                           
  2645                           ;Proyecto02.c: 440:     PIR2bits.EEIF = 0;
  2646  07F2  120D               	bcf	13,4	;volatile
  2647                           
  2648                           ;Proyecto02.c: 442:     EECON1bits.WREN = 0;
  2649  07F3  1683               	bsf	3,5	;RP0=1, select bank3
  2650  07F4  1703               	bsf	3,6	;RP1=1, select bank3
  2651  07F5  110C               	bcf	12,2	;volsfr
  2652  07F6                     i1l249:
  2653  07F6  0008               	return
  2654  07F7                     __end_of_write_eeprom:
  2655                           
  2656                           	psect	text5
  2657  0F40                     __ptext5:	
  2658 ;; *************** function _read_eeprom *****************
  2659 ;; Defined at:
  2660 ;;		line 446 in file "Proyecto02.c"
  2661 ;; Parameters:    Size  Location     Type
  2662 ;;  direccion       1    wreg     unsigned char 
  2663 ;; Auto vars:     Size  Location     Type
  2664 ;;  direccion       1    1[COMMON] unsigned char 
  2665 ;;  dato            1    2[COMMON] unsigned char 
  2666 ;; Return value:  Size  Location     Type
  2667 ;;                  1    wreg      unsigned char 
  2668 ;; Registers used:
  2669 ;;		wreg
  2670 ;; Tracked objects:
  2671 ;;		On entry : 0/0
  2672 ;;		On exit  : 0/0
  2673 ;;		Unchanged: 0/0
  2674 ;; Data sizes:     COMMON   BANK0   BANK1   BANK3   BANK2
  2675 ;;      Params:         0       0       0       0       0
  2676 ;;      Locals:         2       0       0       0       0
  2677 ;;      Temps:          1       0       0       0       0
  2678 ;;      Totals:         3       0       0       0       0
  2679 ;;Total ram usage:        3 bytes
  2680 ;; Hardware stack levels used:    1
  2681 ;; This function calls:
  2682 ;;		Nothing
  2683 ;; This function is called by:
  2684 ;;		_isr
  2685 ;; This function uses a non-reentrant model
  2686 ;;
  2687                           
  2688                           
  2689                           ;psect for function _read_eeprom
  2690  0F40                     _read_eeprom:
  2691                           
  2692                           ;incstack = 0
  2693                           ; Regs used in _read_eeprom: [wreg]
  2694                           ;read_eeprom@direccion stored from wreg
  2695  0F40  00F1               	movwf	read_eeprom@direccion
  2696  0F41                     i1l1428:
  2697                           
  2698                           ;Proyecto02.c: 447:     EEADR = direccion;
  2699  0F41  0871               	movf	read_eeprom@direccion,w
  2700  0F42  1283               	bcf	3,5	;RP0=0, select bank2
  2701  0F43  1703               	bsf	3,6	;RP1=1, select bank2
  2702  0F44  008D               	movwf	13	;volatile
  2703  0F45                     i1l1430:
  2704                           
  2705                           ;Proyecto02.c: 448:     EECON1bits.EEPGD = 0;
  2706  0F45  1683               	bsf	3,5	;RP0=1, select bank3
  2707  0F46  1703               	bsf	3,6	;RP1=1, select bank3
  2708  0F47  138C               	bcf	12,7	;volsfr
  2709  0F48                     i1l1432:
  2710                           
  2711                           ;Proyecto02.c: 449:     EECON1bits.RD = 1;
  2712  0F48  140C               	bsf	12,0	;volsfr
  2713                           
  2714                           ;Proyecto02.c: 450:     char dato = EEDATA;
  2715  0F49  1283               	bcf	3,5	;RP0=0, select bank2
  2716  0F4A  1703               	bsf	3,6	;RP1=1, select bank2
  2717  0F4B  080C               	movf	12,w	;volatile
  2718  0F4C  00F0               	movwf	??_read_eeprom
  2719  0F4D  0870               	movf	??_read_eeprom,w
  2720  0F4E  00F2               	movwf	read_eeprom@dato
  2721                           
  2722                           ;Proyecto02.c: 451:     return dato;
  2723  0F4F  0872               	movf	read_eeprom@dato,w
  2724  0F50                     i1l252:
  2725  0F50  0008               	return
  2726  0F51                     __end_of_read_eeprom:
  2727                           
  2728                           	psect	text6
  2729  0334                     __ptext6:	
  2730 ;; *************** function _menu *****************
  2731 ;; Defined at:
  2732 ;;		line 462 in file "Proyecto02.c"
  2733 ;; Parameters:    Size  Location     Type
  2734 ;;		None
  2735 ;; Auto vars:     Size  Location     Type
  2736 ;;		None
  2737 ;; Return value:  Size  Location     Type
  2738 ;;                  1    wreg      void 
  2739 ;; Registers used:
  2740 ;;		wreg, fsr0l, fsr0h, status,2, status,0, btemp+1, pclath, cstack
  2741 ;; Tracked objects:
  2742 ;;		On entry : 0/0
  2743 ;;		On exit  : 0/0
  2744 ;;		Unchanged: 0/0
  2745 ;; Data sizes:     COMMON   BANK0   BANK1   BANK3   BANK2
  2746 ;;      Params:         0       0       0       0       0
  2747 ;;      Locals:         0       0       0       0       0
  2748 ;;      Temps:          3       0       0       0       0
  2749 ;;      Totals:         3       0       0       0       0
  2750 ;;Total ram usage:        3 bytes
  2751 ;; Hardware stack levels used:    1
  2752 ;; Hardware stack levels required when called:    2
  2753 ;; This function calls:
  2754 ;;		_dedo1_1
  2755 ;;		_dedo1_3
  2756 ;;		_printf
  2757 ;; This function is called by:
  2758 ;;		_isr
  2759 ;; This function uses a non-reentrant model
  2760 ;;
  2761                           
  2762                           
  2763                           ;psect for function _menu
  2764  0334                     _menu:
  2765  0334                     i1l1446:	
  2766                           ;incstack = 0
  2767                           ; Regs used in _menu: [wreg-fsr0h+status,2+status,0+btemp+1+pclath+cstack]
  2768                           
  2769                           
  2770                           ;Proyecto02.c: 463:     _delay((unsigned long)((250)*(8000000/4000.0)));
  2771  0334  3003               	movlw	3
  2772  0335  00FA               	movwf	??_menu+2
  2773  0336  308A               	movlw	138
  2774  0337  00F9               	movwf	??_menu+1
  2775  0338  3055               	movlw	85
  2776  0339  00F8               	movwf	??_menu
  2777  033A                     u122_27:
  2778  033A  0BF8               	decfsz	??_menu,f
  2779  033B  2B3A               	goto	u122_27
  2780  033C  0BF9               	decfsz	??_menu+1,f
  2781  033D  2B3A               	goto	u122_27
  2782  033E  0BFA               	decfsz	??_menu+2,f
  2783  033F  2B3A               	goto	u122_27
  2784  0340  2B41               	nop2
  2785  0341                     i1l1448:
  2786                           
  2787                           ;Proyecto02.c: 464:     printf("\r -----------Bienvenido----------- \r");
  2788  0341  302A               	movlw	low (STR_1| (0+32768))
  2789  0342  00F1               	movwf	printf@f
  2790  0343  3086               	movlw	high (STR_1| (0+32768))
  2791  0344  00F2               	movwf	printf@f+1
  2792  0345  120A  118A  25A5  120A  118A  	fcall	_printf
  2793  034A                     i1l1450:
  2794                           
  2795                           ;Proyecto02.c: 465:     _delay((unsigned long)((250)*(8000000/4000.0)));
  2796  034A  3003               	movlw	3
  2797  034B  00FA               	movwf	??_menu+2
  2798  034C  308A               	movlw	138
  2799  034D  00F9               	movwf	??_menu+1
  2800  034E  3055               	movlw	85
  2801  034F  00F8               	movwf	??_menu
  2802  0350                     u123_27:
  2803  0350  0BF8               	decfsz	??_menu,f
  2804  0351  2B50               	goto	u123_27
  2805  0352  0BF9               	decfsz	??_menu+1,f
  2806  0353  2B50               	goto	u123_27
  2807  0354  0BFA               	decfsz	??_menu+2,f
  2808  0355  2B50               	goto	u123_27
  2809  0356  2B57               	nop2
  2810                           
  2811                           ;Proyecto02.c: 466:     printf("\r Eliga una de las siguientes opciones: \r");
  2812  0357  3000               	movlw	low (STR_2| (0+32768))
  2813  0358  00F1               	movwf	printf@f
  2814  0359  3086               	movlw	high (STR_2| (0+32768))
  2815  035A  00F2               	movwf	printf@f+1
  2816  035B  120A  118A  25A5  120A  118A  	fcall	_printf
  2817  0360                     i1l1452:
  2818                           
  2819                           ;Proyecto02.c: 467:     _delay((unsigned long)((250)*(8000000/4000.0)));
  2820  0360  3003               	movlw	3
  2821  0361  00FA               	movwf	??_menu+2
  2822  0362  308A               	movlw	138
  2823  0363  00F9               	movwf	??_menu+1
  2824  0364  3055               	movlw	85
  2825  0365  00F8               	movwf	??_menu
  2826  0366                     u124_27:
  2827  0366  0BF8               	decfsz	??_menu,f
  2828  0367  2B66               	goto	u124_27
  2829  0368  0BF9               	decfsz	??_menu+1,f
  2830  0369  2B66               	goto	u124_27
  2831  036A  0BFA               	decfsz	??_menu+2,f
  2832  036B  2B66               	goto	u124_27
  2833  036C  2B6D               	nop2
  2834  036D                     i1l1454:
  2835                           
  2836                           ;Proyecto02.c: 468:     printf(" 1. Mover motores individuales \r");
  2837  036D  304F               	movlw	low (STR_3| (0+32768))
  2838  036E  00F1               	movwf	printf@f
  2839  036F  3086               	movlw	high (STR_3| (0+32768))
  2840  0370  00F2               	movwf	printf@f+1
  2841  0371  120A  118A  25A5  120A  118A  	fcall	_printf
  2842                           
  2843                           ;Proyecto02.c: 469:     _delay((unsigned long)((250)*(8000000/4000.0)));
  2844  0376  3003               	movlw	3
  2845  0377  00FA               	movwf	??_menu+2
  2846  0378  308A               	movlw	138
  2847  0379  00F9               	movwf	??_menu+1
  2848  037A  3055               	movlw	85
  2849  037B  00F8               	movwf	??_menu
  2850  037C                     u125_27:
  2851  037C  0BF8               	decfsz	??_menu,f
  2852  037D  2B7C               	goto	u125_27
  2853  037E  0BF9               	decfsz	??_menu+1,f
  2854  037F  2B7C               	goto	u125_27
  2855  0380  0BFA               	decfsz	??_menu+2,f
  2856  0381  2B7C               	goto	u125_27
  2857  0382  2B83               	nop2
  2858  0383                     i1l1456:
  2859                           
  2860                           ;Proyecto02.c: 470:     printf(" 2. Elegir una rutina \r");
  2861  0383  30BE               	movlw	low (STR_4| (0+32768))
  2862  0384  00F1               	movwf	printf@f
  2863  0385  3086               	movlw	high (STR_4| (0+32768))
  2864  0386  00F2               	movwf	printf@f+1
  2865  0387  120A  118A  25A5  120A  118A  	fcall	_printf
  2866  038C                     i1l1458:
  2867                           
  2868                           ;Proyecto02.c: 471:     _delay((unsigned long)((250)*(8000000/4000.0)));
  2869  038C  3003               	movlw	3
  2870  038D  00FA               	movwf	??_menu+2
  2871  038E  308A               	movlw	138
  2872  038F  00F9               	movwf	??_menu+1
  2873  0390  3055               	movlw	85
  2874  0391  00F8               	movwf	??_menu
  2875  0392                     u126_27:
  2876  0392  0BF8               	decfsz	??_menu,f
  2877  0393  2B92               	goto	u126_27
  2878  0394  0BF9               	decfsz	??_menu+1,f
  2879  0395  2B92               	goto	u126_27
  2880  0396  0BFA               	decfsz	??_menu+2,f
  2881  0397  2B92               	goto	u126_27
  2882  0398  2B99               	nop2
  2883                           
  2884                           ;Proyecto02.c: 472:     printf(" 3. Salir de la terminal \r");
  2885  0399  308B               	movlw	low (STR_5| (0+32768))
  2886  039A  00F1               	movwf	printf@f
  2887  039B  3086               	movlw	high (STR_5| (0+32768))
  2888  039C  00F2               	movwf	printf@f+1
  2889  039D  120A  118A  25A5  120A  118A  	fcall	_printf
  2890  03A2                     i1l261:	
  2891                           ;Proyecto02.c: 474:     while (RCIF == 0);
  2892                           
  2893  03A2  1283               	bcf	3,5	;RP0=0, select bank0
  2894  03A3  1303               	bcf	3,6	;RP1=0, select bank0
  2895  03A4  1E8C               	btfss	12,5	;volatile
  2896  03A5  2BA7               	goto	u62_21
  2897  03A6  2BA8               	goto	u62_20
  2898  03A7                     u62_21:
  2899  03A7  2BA2               	goto	i1l261
  2900  03A8                     u62_20:
  2901  03A8                     i1l1460:
  2902                           
  2903                           ;Proyecto02.c: 476:     if (RCREG == '1'){
  2904  03A8  3031               	movlw	49
  2905  03A9  061A               	xorwf	26,w	;volatile
  2906  03AA  1D03               	btfss	3,2
  2907  03AB  2BAD               	goto	u63_21
  2908  03AC  2BAE               	goto	u63_20
  2909  03AD                     u63_21:
  2910  03AD  2CDE               	goto	i1l1520
  2911  03AE                     u63_20:
  2912  03AE                     i1l1462:
  2913                           
  2914                           ;Proyecto02.c: 477:         _delay((unsigned long)((500)*(8000000/4000.0)));
  2915  03AE  3006               	movlw	6
  2916  03AF  00FA               	movwf	??_menu+2
  2917  03B0  3013               	movlw	19
  2918  03B1  00F9               	movwf	??_menu+1
  2919  03B2  30AD               	movlw	173
  2920  03B3  00F8               	movwf	??_menu
  2921  03B4                     u127_27:
  2922  03B4  0BF8               	decfsz	??_menu,f
  2923  03B5  2BB4               	goto	u127_27
  2924  03B6  0BF9               	decfsz	??_menu+1,f
  2925  03B7  2BB4               	goto	u127_27
  2926  03B8  0BFA               	decfsz	??_menu+2,f
  2927  03B9  2BB4               	goto	u127_27
  2928  03BA  2BBB               	nop2
  2929  03BB                     i1l1464:
  2930                           
  2931                           ;Proyecto02.c: 478:         printf("\r Que motor desea mover? \r");
  2932  03BB  3070               	movlw	low (STR_6| (0+32768))
  2933  03BC  00F1               	movwf	printf@f
  2934  03BD  3086               	movlw	high (STR_6| (0+32768))
  2935  03BE  00F2               	movwf	printf@f+1
  2936  03BF  120A  118A  25A5  120A  118A  	fcall	_printf
  2937  03C4                     i1l1466:
  2938                           
  2939                           ;Proyecto02.c: 479:         _delay((unsigned long)((250)*(8000000/4000.0)));
  2940  03C4  3003               	movlw	3
  2941  03C5  00FA               	movwf	??_menu+2
  2942  03C6  308A               	movlw	138
  2943  03C7  00F9               	movwf	??_menu+1
  2944  03C8  3055               	movlw	85
  2945  03C9  00F8               	movwf	??_menu
  2946  03CA                     u128_27:
  2947  03CA  0BF8               	decfsz	??_menu,f
  2948  03CB  2BCA               	goto	u128_27
  2949  03CC  0BF9               	decfsz	??_menu+1,f
  2950  03CD  2BCA               	goto	u128_27
  2951  03CE  0BFA               	decfsz	??_menu+2,f
  2952  03CF  2BCA               	goto	u128_27
  2953  03D0  2BD1               	nop2
  2954                           
  2955                           ;Proyecto02.c: 480:         printf(" a. Mover motor 1 \r");
  2956  03D1  30D6               	movlw	low (STR_7| (0+32768))
  2957  03D2  00F1               	movwf	printf@f
  2958  03D3  3086               	movlw	high (STR_7| (0+32768))
  2959  03D4  00F2               	movwf	printf@f+1
  2960  03D5  120A  118A  25A5  120A  118A  	fcall	_printf
  2961  03DA                     i1l1468:
  2962                           
  2963                           ;Proyecto02.c: 481:         _delay((unsigned long)((250)*(8000000/4000.0)));
  2964  03DA  3003               	movlw	3
  2965  03DB  00FA               	movwf	??_menu+2
  2966  03DC  308A               	movlw	138
  2967  03DD  00F9               	movwf	??_menu+1
  2968  03DE  3055               	movlw	85
  2969  03DF  00F8               	movwf	??_menu
  2970  03E0                     u129_27:
  2971  03E0  0BF8               	decfsz	??_menu,f
  2972  03E1  2BE0               	goto	u129_27
  2973  03E2  0BF9               	decfsz	??_menu+1,f
  2974  03E3  2BE0               	goto	u129_27
  2975  03E4  0BFA               	decfsz	??_menu+2,f
  2976  03E5  2BE0               	goto	u129_27
  2977  03E6  2BE7               	nop2
  2978  03E7                     i1l1470:
  2979                           
  2980                           ;Proyecto02.c: 482:         printf(" b. Mover motor 2 \r");
  2981  03E7  30EA               	movlw	low (STR_8| (0+32768))
  2982  03E8  00F1               	movwf	printf@f
  2983  03E9  3086               	movlw	high (STR_8| (0+32768))
  2984  03EA  00F2               	movwf	printf@f+1
  2985  03EB  120A  118A  25A5  120A  118A  	fcall	_printf
  2986                           
  2987                           ;Proyecto02.c: 483:         _delay((unsigned long)((250)*(8000000/4000.0)));
  2988  03F0  3003               	movlw	3
  2989  03F1  00FA               	movwf	??_menu+2
  2990  03F2  308A               	movlw	138
  2991  03F3  00F9               	movwf	??_menu+1
  2992  03F4  3055               	movlw	85
  2993  03F5  00F8               	movwf	??_menu
  2994  03F6                     u130_27:
  2995  03F6  0BF8               	decfsz	??_menu,f
  2996  03F7  2BF6               	goto	u130_27
  2997  03F8  0BF9               	decfsz	??_menu+1,f
  2998  03F9  2BF6               	goto	u130_27
  2999  03FA  0BFA               	decfsz	??_menu+2,f
  3000  03FB  2BF6               	goto	u130_27
  3001  03FC  2BFD               	nop2
  3002  03FD                     i1l1472:
  3003                           
  3004                           ;Proyecto02.c: 484:         printf(" c. Mover motor 3 \r");
  3005  03FD  30FE               	movlw	low (STR_9| (0+32768))
  3006  03FE  00F1               	movwf	printf@f
  3007  03FF  3086               	movlw	high (STR_9| (0+32768))
  3008  0400  00F2               	movwf	printf@f+1
  3009  0401  120A  118A  25A5  120A  118A  	fcall	_printf
  3010  0406                     i1l1474:
  3011                           
  3012                           ;Proyecto02.c: 485:         _delay((unsigned long)((250)*(8000000/4000.0)));
  3013  0406  3003               	movlw	3
  3014  0407  00FA               	movwf	??_menu+2
  3015  0408  308A               	movlw	138
  3016  0409  00F9               	movwf	??_menu+1
  3017  040A  3055               	movlw	85
  3018  040B  00F8               	movwf	??_menu
  3019  040C                     u131_27:
  3020  040C  0BF8               	decfsz	??_menu,f
  3021  040D  2C0C               	goto	u131_27
  3022  040E  0BF9               	decfsz	??_menu+1,f
  3023  040F  2C0C               	goto	u131_27
  3024  0410  0BFA               	decfsz	??_menu+2,f
  3025  0411  2C0C               	goto	u131_27
  3026  0412  2C13               	nop2
  3027                           
  3028                           ;Proyecto02.c: 486:         printf(" d. Mover motor 4 \r");
  3029  0413  3012               	movlw	low (STR_10| (0+32768))
  3030  0414  00F1               	movwf	printf@f
  3031  0415  3087               	movlw	high (STR_10| (0+32768))
  3032  0416  00F2               	movwf	printf@f+1
  3033  0417  120A  118A  25A5  120A  118A  	fcall	_printf
  3034  041C                     i1l1476:
  3035                           
  3036                           ;Proyecto02.c: 487:         _delay((unsigned long)((250)*(8000000/4000.0)));
  3037  041C  3003               	movlw	3
  3038  041D  00FA               	movwf	??_menu+2
  3039  041E  308A               	movlw	138
  3040  041F  00F9               	movwf	??_menu+1
  3041  0420  3055               	movlw	85
  3042  0421  00F8               	movwf	??_menu
  3043  0422                     u132_27:
  3044  0422  0BF8               	decfsz	??_menu,f
  3045  0423  2C22               	goto	u132_27
  3046  0424  0BF9               	decfsz	??_menu+1,f
  3047  0425  2C22               	goto	u132_27
  3048  0426  0BFA               	decfsz	??_menu+2,f
  3049  0427  2C22               	goto	u132_27
  3050  0428  2C29               	nop2
  3051  0429                     i1l1478:
  3052                           
  3053                           ;Proyecto02.c: 488:         printf(" e. Mover motor 5 \r");
  3054  0429  3026               	movlw	low (STR_11| (0+32768))
  3055  042A  00F1               	movwf	printf@f
  3056  042B  3087               	movlw	high (STR_11| (0+32768))
  3057  042C  00F2               	movwf	printf@f+1
  3058  042D  120A  118A  25A5  120A  118A  	fcall	_printf
  3059                           
  3060                           ;Proyecto02.c: 489:         _delay((unsigned long)((250)*(8000000/4000.0)));
  3061  0432  3003               	movlw	3
  3062  0433  00FA               	movwf	??_menu+2
  3063  0434  308A               	movlw	138
  3064  0435  00F9               	movwf	??_menu+1
  3065  0436  3055               	movlw	85
  3066  0437  00F8               	movwf	??_menu
  3067  0438                     u133_27:
  3068  0438  0BF8               	decfsz	??_menu,f
  3069  0439  2C38               	goto	u133_27
  3070  043A  0BF9               	decfsz	??_menu+1,f
  3071  043B  2C38               	goto	u133_27
  3072  043C  0BFA               	decfsz	??_menu+2,f
  3073  043D  2C38               	goto	u133_27
  3074  043E  2C3F               	nop2
  3075  043F                     i1l265:	
  3076                           ;Proyecto02.c: 491:         while (RCIF == 0);
  3077                           
  3078  043F  1283               	bcf	3,5	;RP0=0, select bank0
  3079  0440  1303               	bcf	3,6	;RP1=0, select bank0
  3080  0441  1E8C               	btfss	12,5	;volatile
  3081  0442  2C44               	goto	u64_21
  3082  0443  2C45               	goto	u64_20
  3083  0444                     u64_21:
  3084  0444  2C3F               	goto	i1l265
  3085  0445                     u64_20:
  3086  0445                     i1l1480:
  3087                           
  3088                           ;Proyecto02.c: 493:         if (RCREG == 'a'){
  3089  0445  3061               	movlw	97
  3090  0446  061A               	xorwf	26,w	;volatile
  3091  0447  1D03               	btfss	3,2
  3092  0448  2C4A               	goto	u65_21
  3093  0449  2C4B               	goto	u65_20
  3094  044A                     u65_21:
  3095  044A  2C62               	goto	i1l1488
  3096  044B                     u65_20:
  3097  044B                     i1l1482:
  3098                           
  3099                           ;Proyecto02.c: 494:             dedo1_1();
  3100  044B  120A  118A  25E4  120A  118A  	fcall	_dedo1_1
  3101  0450                     i1l1484:
  3102                           
  3103                           ;Proyecto02.c: 495:             _delay((unsigned long)((2500)*(8000000/4000.0)));
  3104  0450  301A               	movlw	26
  3105  0451  00FA               	movwf	??_menu+2
  3106  0452  305E               	movlw	94
  3107  0453  00F9               	movwf	??_menu+1
  3108  0454  306E               	movlw	110
  3109  0455  00F8               	movwf	??_menu
  3110  0456                     u134_27:
  3111  0456  0BF8               	decfsz	??_menu,f
  3112  0457  2C56               	goto	u134_27
  3113  0458  0BF9               	decfsz	??_menu+1,f
  3114  0459  2C56               	goto	u134_27
  3115  045A  0BFA               	decfsz	??_menu+2,f
  3116  045B  2C56               	goto	u134_27
  3117  045C  0000               	nop
  3118  045D                     i1l1486:
  3119                           
  3120                           ;Proyecto02.c: 496:             dedo1_3();
  3121  045D  120A  118A  25CB  120A  118A  	fcall	_dedo1_3
  3122  0462                     i1l1488:
  3123                           
  3124                           ;Proyecto02.c: 498:         if (RCREG == 'b'){
  3125  0462  3062               	movlw	98
  3126  0463  1283               	bcf	3,5	;RP0=0, select bank0
  3127  0464  1303               	bcf	3,6	;RP1=0, select bank0
  3128  0465  061A               	xorwf	26,w	;volatile
  3129  0466  1D03               	btfss	3,2
  3130  0467  2C69               	goto	u66_21
  3131  0468  2C6A               	goto	u66_20
  3132  0469                     u66_21:
  3133  0469  2C81               	goto	i1l1496
  3134  046A                     u66_20:
  3135  046A                     i1l1490:
  3136                           
  3137                           ;Proyecto02.c: 499:             dedo1_1();
  3138  046A  120A  118A  25E4  120A  118A  	fcall	_dedo1_1
  3139  046F                     i1l1492:
  3140                           
  3141                           ;Proyecto02.c: 500:             _delay((unsigned long)((2500)*(8000000/4000.0)));
  3142  046F  301A               	movlw	26
  3143  0470  00FA               	movwf	??_menu+2
  3144  0471  305E               	movlw	94
  3145  0472  00F9               	movwf	??_menu+1
  3146  0473  306E               	movlw	110
  3147  0474  00F8               	movwf	??_menu
  3148  0475                     u135_27:
  3149  0475  0BF8               	decfsz	??_menu,f
  3150  0476  2C75               	goto	u135_27
  3151  0477  0BF9               	decfsz	??_menu+1,f
  3152  0478  2C75               	goto	u135_27
  3153  0479  0BFA               	decfsz	??_menu+2,f
  3154  047A  2C75               	goto	u135_27
  3155  047B  0000               	nop
  3156  047C                     i1l1494:
  3157                           
  3158                           ;Proyecto02.c: 501:             dedo1_3();
  3159  047C  120A  118A  25CB  120A  118A  	fcall	_dedo1_3
  3160  0481                     i1l1496:
  3161                           
  3162                           ;Proyecto02.c: 503:         if (RCREG == 'c'){
  3163  0481  3063               	movlw	99
  3164  0482  1283               	bcf	3,5	;RP0=0, select bank0
  3165  0483  1303               	bcf	3,6	;RP1=0, select bank0
  3166  0484  061A               	xorwf	26,w	;volatile
  3167  0485  1D03               	btfss	3,2
  3168  0486  2C88               	goto	u67_21
  3169  0487  2C89               	goto	u67_20
  3170  0488                     u67_21:
  3171  0488  2CA0               	goto	i1l1504
  3172  0489                     u67_20:
  3173  0489                     i1l1498:
  3174                           
  3175                           ;Proyecto02.c: 504:             dedo1_1();
  3176  0489  120A  118A  25E4  120A  118A  	fcall	_dedo1_1
  3177  048E                     i1l1500:
  3178                           
  3179                           ;Proyecto02.c: 505:             _delay((unsigned long)((2500)*(8000000/4000.0)));
  3180  048E  301A               	movlw	26
  3181  048F  00FA               	movwf	??_menu+2
  3182  0490  305E               	movlw	94
  3183  0491  00F9               	movwf	??_menu+1
  3184  0492  306E               	movlw	110
  3185  0493  00F8               	movwf	??_menu
  3186  0494                     u136_27:
  3187  0494  0BF8               	decfsz	??_menu,f
  3188  0495  2C94               	goto	u136_27
  3189  0496  0BF9               	decfsz	??_menu+1,f
  3190  0497  2C94               	goto	u136_27
  3191  0498  0BFA               	decfsz	??_menu+2,f
  3192  0499  2C94               	goto	u136_27
  3193  049A  0000               	nop
  3194  049B                     i1l1502:
  3195                           
  3196                           ;Proyecto02.c: 506:             dedo1_3();
  3197  049B  120A  118A  25CB  120A  118A  	fcall	_dedo1_3
  3198  04A0                     i1l1504:
  3199                           
  3200                           ;Proyecto02.c: 508:         if (RCREG == 'd'){
  3201  04A0  3064               	movlw	100
  3202  04A1  1283               	bcf	3,5	;RP0=0, select bank0
  3203  04A2  1303               	bcf	3,6	;RP1=0, select bank0
  3204  04A3  061A               	xorwf	26,w	;volatile
  3205  04A4  1D03               	btfss	3,2
  3206  04A5  2CA7               	goto	u68_21
  3207  04A6  2CA8               	goto	u68_20
  3208  04A7                     u68_21:
  3209  04A7  2CBF               	goto	i1l1512
  3210  04A8                     u68_20:
  3211  04A8                     i1l1506:
  3212                           
  3213                           ;Proyecto02.c: 509:             dedo1_1();
  3214  04A8  120A  118A  25E4  120A  118A  	fcall	_dedo1_1
  3215  04AD                     i1l1508:
  3216                           
  3217                           ;Proyecto02.c: 510:             _delay((unsigned long)((2500)*(8000000/4000.0)));
  3218  04AD  301A               	movlw	26
  3219  04AE  00FA               	movwf	??_menu+2
  3220  04AF  305E               	movlw	94
  3221  04B0  00F9               	movwf	??_menu+1
  3222  04B1  306E               	movlw	110
  3223  04B2  00F8               	movwf	??_menu
  3224  04B3                     u137_27:
  3225  04B3  0BF8               	decfsz	??_menu,f
  3226  04B4  2CB3               	goto	u137_27
  3227  04B5  0BF9               	decfsz	??_menu+1,f
  3228  04B6  2CB3               	goto	u137_27
  3229  04B7  0BFA               	decfsz	??_menu+2,f
  3230  04B8  2CB3               	goto	u137_27
  3231  04B9  0000               	nop
  3232  04BA                     i1l1510:
  3233                           
  3234                           ;Proyecto02.c: 511:             dedo1_3();
  3235  04BA  120A  118A  25CB  120A  118A  	fcall	_dedo1_3
  3236  04BF                     i1l1512:
  3237                           
  3238                           ;Proyecto02.c: 513:         if (RCREG == 'e'){
  3239  04BF  3065               	movlw	101
  3240  04C0  1283               	bcf	3,5	;RP0=0, select bank0
  3241  04C1  1303               	bcf	3,6	;RP1=0, select bank0
  3242  04C2  061A               	xorwf	26,w	;volatile
  3243  04C3  1D03               	btfss	3,2
  3244  04C4  2CC6               	goto	u69_21
  3245  04C5  2CC7               	goto	u69_20
  3246  04C6                     u69_21:
  3247  04C6  2CDE               	goto	i1l1520
  3248  04C7                     u69_20:
  3249  04C7                     i1l1514:
  3250                           
  3251                           ;Proyecto02.c: 514:             dedo1_1();
  3252  04C7  120A  118A  25E4  120A  118A  	fcall	_dedo1_1
  3253  04CC                     i1l1516:
  3254                           
  3255                           ;Proyecto02.c: 515:             _delay((unsigned long)((2500)*(8000000/4000.0)));
  3256  04CC  301A               	movlw	26
  3257  04CD  00FA               	movwf	??_menu+2
  3258  04CE  305E               	movlw	94
  3259  04CF  00F9               	movwf	??_menu+1
  3260  04D0  306E               	movlw	110
  3261  04D1  00F8               	movwf	??_menu
  3262  04D2                     u138_27:
  3263  04D2  0BF8               	decfsz	??_menu,f
  3264  04D3  2CD2               	goto	u138_27
  3265  04D4  0BF9               	decfsz	??_menu+1,f
  3266  04D5  2CD2               	goto	u138_27
  3267  04D6  0BFA               	decfsz	??_menu+2,f
  3268  04D7  2CD2               	goto	u138_27
  3269  04D8  0000               	nop
  3270  04D9                     i1l1518:
  3271                           
  3272                           ;Proyecto02.c: 516:             dedo1_3();
  3273  04D9  120A  118A  25CB  120A  118A  	fcall	_dedo1_3
  3274  04DE                     i1l1520:	
  3275                           ;Proyecto02.c: 517:         }
  3276                           
  3277                           
  3278                           ;Proyecto02.c: 522:     if (RCREG == '2'){
  3279  04DE  3032               	movlw	50
  3280  04DF  1283               	bcf	3,5	;RP0=0, select bank0
  3281  04E0  1303               	bcf	3,6	;RP1=0, select bank0
  3282  04E1  061A               	xorwf	26,w	;volatile
  3283  04E2  1D03               	btfss	3,2
  3284  04E3  2CE5               	goto	u70_21
  3285  04E4  2CE6               	goto	u70_20
  3286  04E5                     u70_21:
  3287  04E5  2CEF               	goto	i1l1524
  3288  04E6                     u70_20:
  3289  04E6                     i1l1522:
  3290                           
  3291                           ;Proyecto02.c: 523:         printf("\r a. Conteo de 1 a 5: \r");
  3292  04E6  30A6               	movlw	low (STR_12| (0+32768))
  3293  04E7  00F1               	movwf	printf@f
  3294  04E8  3086               	movlw	high (STR_12| (0+32768))
  3295  04E9  00F2               	movwf	printf@f+1
  3296  04EA  120A  118A  25A5  120A  118A  	fcall	_printf
  3297  04EF                     i1l1524:
  3298                           
  3299                           ;Proyecto02.c: 525:     if (RCREG == '3'){
  3300  04EF  3033               	movlw	51
  3301  04F0  1283               	bcf	3,5	;RP0=0, select bank0
  3302  04F1  1303               	bcf	3,6	;RP1=0, select bank0
  3303  04F2  061A               	xorwf	26,w	;volatile
  3304  04F3  1D03               	btfss	3,2
  3305  04F4  2CF6               	goto	u71_21
  3306  04F5  2CF7               	goto	u71_20
  3307  04F6                     u71_21:
  3308  04F6  2D4F               	goto	i1l282
  3309  04F7                     u71_20:
  3310  04F7                     i1l1526:
  3311                           
  3312                           ;Proyecto02.c: 526:         printf("\r ¿Esta seguro? \r");
  3313  04F7  303A               	movlw	low (STR_13| (0+32768))
  3314  04F8  00F1               	movwf	printf@f
  3315  04F9  3087               	movlw	high (STR_13| (0+32768))
  3316  04FA  00F2               	movwf	printf@f+1
  3317  04FB  120A  118A  25A5  120A  118A  	fcall	_printf
  3318  0500                     i1l1528:
  3319                           
  3320                           ;Proyecto02.c: 527:         _delay((unsigned long)((250)*(8000000/4000.0)));
  3321  0500  3003               	movlw	3
  3322  0501  00FA               	movwf	??_menu+2
  3323  0502  308A               	movlw	138
  3324  0503  00F9               	movwf	??_menu+1
  3325  0504  3055               	movlw	85
  3326  0505  00F8               	movwf	??_menu
  3327  0506                     u139_27:
  3328  0506  0BF8               	decfsz	??_menu,f
  3329  0507  2D06               	goto	u139_27
  3330  0508  0BF9               	decfsz	??_menu+1,f
  3331  0509  2D06               	goto	u139_27
  3332  050A  0BFA               	decfsz	??_menu+2,f
  3333  050B  2D06               	goto	u139_27
  3334  050C  2D0D               	nop2
  3335  050D                     i1l1530:
  3336                           
  3337                           ;Proyecto02.c: 528:         printf(" a. Si \r");
  3338  050D  304D               	movlw	low (STR_14| (0+32768))
  3339  050E  00F1               	movwf	printf@f
  3340  050F  3087               	movlw	high (STR_14| (0+32768))
  3341  0510  00F2               	movwf	printf@f+1
  3342  0511  120A  118A  25A5  120A  118A  	fcall	_printf
  3343                           
  3344                           ;Proyecto02.c: 529:         _delay((unsigned long)((250)*(8000000/4000.0)));
  3345  0516  3003               	movlw	3
  3346  0517  00FA               	movwf	??_menu+2
  3347  0518  308A               	movlw	138
  3348  0519  00F9               	movwf	??_menu+1
  3349  051A  3055               	movlw	85
  3350  051B  00F8               	movwf	??_menu
  3351  051C                     u140_27:
  3352  051C  0BF8               	decfsz	??_menu,f
  3353  051D  2D1C               	goto	u140_27
  3354  051E  0BF9               	decfsz	??_menu+1,f
  3355  051F  2D1C               	goto	u140_27
  3356  0520  0BFA               	decfsz	??_menu+2,f
  3357  0521  2D1C               	goto	u140_27
  3358  0522  2D23               	nop2
  3359  0523                     i1l1532:
  3360                           
  3361                           ;Proyecto02.c: 530:         printf(" b. No \r");
  3362  0523  3056               	movlw	low (STR_15| (0+32768))
  3363  0524  00F1               	movwf	printf@f
  3364  0525  3087               	movlw	high (STR_15| (0+32768))
  3365  0526  00F2               	movwf	printf@f+1
  3366  0527  120A  118A  25A5  120A  118A  	fcall	_printf
  3367  052C                     i1l1534:
  3368                           
  3369                           ;Proyecto02.c: 531:         _delay((unsigned long)((250)*(8000000/4000.0)));
  3370  052C  3003               	movlw	3
  3371  052D  00FA               	movwf	??_menu+2
  3372  052E  308A               	movlw	138
  3373  052F  00F9               	movwf	??_menu+1
  3374  0530  3055               	movlw	85
  3375  0531  00F8               	movwf	??_menu
  3376  0532                     u141_27:
  3377  0532  0BF8               	decfsz	??_menu,f
  3378  0533  2D32               	goto	u141_27
  3379  0534  0BF9               	decfsz	??_menu+1,f
  3380  0535  2D32               	goto	u141_27
  3381  0536  0BFA               	decfsz	??_menu+2,f
  3382  0537  2D32               	goto	u141_27
  3383  0538  2D39               	nop2
  3384  0539                     i1l276:	
  3385                           ;Proyecto02.c: 533:         while (RCIF == 0);
  3386                           
  3387  0539  1283               	bcf	3,5	;RP0=0, select bank0
  3388  053A  1303               	bcf	3,6	;RP1=0, select bank0
  3389  053B  1E8C               	btfss	12,5	;volatile
  3390  053C  2D3E               	goto	u72_21
  3391  053D  2D3F               	goto	u72_20
  3392  053E                     u72_21:
  3393  053E  2D39               	goto	i1l276
  3394  053F                     u72_20:
  3395  053F                     i1l1536:
  3396                           
  3397                           ;Proyecto02.c: 534:         if (RCREG == 'a'){
  3398  053F  3061               	movlw	97
  3399  0540  061A               	xorwf	26,w	;volatile
  3400  0541  1D03               	btfss	3,2
  3401  0542  2D44               	goto	u73_21
  3402  0543  2D45               	goto	u73_20
  3403  0544                     u73_21:
  3404  0544  2D48               	goto	i1l1540
  3405  0545                     u73_20:
  3406  0545                     i1l1538:
  3407                           
  3408                           ;Proyecto02.c: 535:             flag_uart = 0;
  3409  0545  01AE               	clrf	_flag_uart
  3410  0546  01AF               	clrf	_flag_uart+1
  3411                           
  3412                           ;Proyecto02.c: 536:         }
  3413  0547  2D4F               	goto	i1l282
  3414  0548                     i1l1540:
  3415  0548  3062               	movlw	98
  3416  0549  061A               	xorwf	26,w	;volatile
  3417  054A  1D03               	btfss	3,2
  3418  054B  2D4D               	goto	u74_21
  3419  054C  2D4E               	goto	u74_20
  3420  054D                     u74_21:
  3421  054D  2D4F               	goto	i1l1542
  3422  054E                     u74_20:
  3423  054E  2D4F               	goto	i1l282
  3424  054F                     i1l1542:
  3425  054F                     i1l282:	
  3426                           ;Proyecto02.c: 538:             return;
  3427                           
  3428  054F  0008               	return
  3429  0550                     __end_of_menu:
  3430                           
  3431                           	psect	text7
  3432  05A5                     __ptext7:	
  3433 ;; *************** function _printf *****************
  3434 ;; Defined at:
  3435 ;;		line 477 in file "C:\Program Files\Microchip\xc8\v2.31\pic\sources\c90\common\doprnt.c"
  3436 ;; Parameters:    Size  Location     Type
  3437 ;;  f               2    1[COMMON] PTR const unsigned char 
  3438 ;;		 -> STR_15(9), STR_14(9), STR_13(19), STR_12(24), 
  3439 ;;		 -> STR_11(20), STR_10(20), STR_9(20), STR_8(20), 
  3440 ;;		 -> STR_7(20), STR_6(27), STR_5(27), STR_4(24), 
  3441 ;;		 -> STR_3(33), STR_2(42), STR_1(37), 
  3442 ;; Auto vars:     Size  Location     Type
  3443 ;;  tmpval          4    0        struct .
  3444 ;;  cp              2    0        PTR const unsigned char 
  3445 ;;  len             2    0        unsigned int 
  3446 ;;  val             2    0        unsigned int 
  3447 ;;  c               1    7[COMMON] unsigned char 
  3448 ;;  ap              1    6[COMMON] PTR void [1]
  3449 ;;		 -> ?_printf(2), 
  3450 ;;  flag            1    0        unsigned char 
  3451 ;;  prec            1    0        char 
  3452 ;; Return value:  Size  Location     Type
  3453 ;;                  2    1[COMMON] int 
  3454 ;; Registers used:
  3455 ;;		wreg, fsr0l, fsr0h, status,2, status,0, btemp+1, pclath, cstack
  3456 ;; Tracked objects:
  3457 ;;		On entry : 0/0
  3458 ;;		On exit  : 0/0
  3459 ;;		Unchanged: 0/0
  3460 ;; Data sizes:     COMMON   BANK0   BANK1   BANK3   BANK2
  3461 ;;      Params:         2       0       0       0       0
  3462 ;;      Locals:         2       0       0       0       0
  3463 ;;      Temps:          3       0       0       0       0
  3464 ;;      Totals:         7       0       0       0       0
  3465 ;;Total ram usage:        7 bytes
  3466 ;; Hardware stack levels used:    1
  3467 ;; Hardware stack levels required when called:    1
  3468 ;; This function calls:
  3469 ;;		_putch
  3470 ;; This function is called by:
  3471 ;;		_menu
  3472 ;; This function uses a non-reentrant model
  3473 ;;
  3474                           
  3475                           
  3476                           ;psect for function _printf
  3477  05A5                     _printf:
  3478  05A5                     i1l1380:	
  3479                           ;incstack = 0
  3480                           ; Regs used in _printf: [wreg-fsr0h+status,2+status,0+btemp+1+pclath+cstack]
  3481                           
  3482                           
  3483                           ;C:\Program Files\Microchip\xc8\v2.31\pic\sources\c90\common\doprnt.c: 477: printf(const
      +                           char * f, ...);C:\Program Files\Microchip\xc8\v2.31\pic\sources\c90\common\doprnt.c: 47
      +                          8: {;C:\Program Files\Microchip\xc8\v2.31\pic\sources\c90\common\doprnt.c: 479:  va_list
      +                           ap;;C:\Program Files\Microchip\xc8\v2.31\pic\sources\c90\common\doprnt.c: 512:  char c;
      +                          ;C:\Program Files\Microchip\xc8\v2.31\pic\sources\c90\common\doprnt.c: 521:  signed char
      +                           prec;;C:\Program Files\Microchip\xc8\v2.31\pic\sources\c90\common\doprnt.c: 525:  unsig
      +                          ned char flag;
  3484  05A5  3073               	movlw	(low ((?_printf| 0+2)))& (0+255)
  3485  05A6  00F3               	movwf	??_printf
  3486  05A7  0873               	movf	??_printf,w
  3487  05A8  00F6               	movwf	printf@ap
  3488                           
  3489                           ;C:\Program Files\Microchip\xc8\v2.31\pic\sources\c90\common\doprnt.c: 553:  while((c = 
      +                          *f++)) {
  3490  05A9  2DB0               	goto	i1l1384
  3491  05AA                     i1l1382:
  3492                           
  3493                           ;C:\Program Files\Microchip\xc8\v2.31\pic\sources\c90\common\doprnt.c: 557:   {;C:\Progr
      +                          am Files\Microchip\xc8\v2.31\pic\sources\c90\common\doprnt.c: 558:    (putch(c) );
  3494  05AA  0877               	movf	printf@c,w
  3495  05AB  120A  158A  2728  120A  118A  	fcall	_putch
  3496  05B0                     i1l1384:	
  3497                           ;C:\Program Files\Microchip\xc8\v2.31\pic\sources\c90\common\doprnt.c: 559:    continue;
  3498                           
  3499                           
  3500                           ;C:\Program Files\Microchip\xc8\v2.31\pic\sources\c90\common\doprnt.c: 553:  while((c = 
      +                          *f++)) {
  3501  05B0  0872               	movf	printf@f+1,w
  3502  05B1  00F4               	movwf	??_printf+1
  3503  05B2  0871               	movf	printf@f,w
  3504  05B3  00F3               	movwf	??_printf
  3505  05B4  0AF1               	incf	printf@f,f
  3506  05B5  1903               	skipnz
  3507  05B6  0AF2               	incf	printf@f+1,f
  3508  05B7  0874               	movf	??_printf+1,w
  3509  05B8  1283               	bcf	3,5	;RP0=0, select bank0
  3510  05B9  1303               	bcf	3,6	;RP1=0, select bank0
  3511  05BA  00FF               	movwf	btemp+1
  3512  05BB  0873               	movf	??_printf,w
  3513  05BC  0084               	movwf	4
  3514  05BD  120A  158A  2000  120A  118A  	fcall	stringtab
  3515  05C2  00F5               	movwf	??_printf+2
  3516  05C3  0875               	movf	??_printf+2,w
  3517  05C4  00F7               	movwf	printf@c
  3518  05C5  0877               	movf	printf@c,w
  3519  05C6  1D03               	btfss	3,2
  3520  05C7  2DC9               	goto	u60_21
  3521  05C8  2DCA               	goto	u60_20
  3522  05C9                     u60_21:
  3523  05C9  2DAA               	goto	i1l1382
  3524  05CA                     u60_20:
  3525  05CA                     i1l376:
  3526  05CA  0008               	return
  3527  05CB                     __end_of_printf:
  3528                           
  3529                           	psect	text8
  3530  0F28                     __ptext8:	
  3531 ;; *************** function _putch *****************
  3532 ;; Defined at:
  3533 ;;		line 455 in file "Proyecto02.c"
  3534 ;; Parameters:    Size  Location     Type
  3535 ;;  data            1    wreg     unsigned char 
  3536 ;; Auto vars:     Size  Location     Type
  3537 ;;  data            1    0[COMMON] unsigned char 
  3538 ;; Return value:  Size  Location     Type
  3539 ;;                  1    wreg      void 
  3540 ;; Registers used:
  3541 ;;		wreg
  3542 ;; Tracked objects:
  3543 ;;		On entry : 0/0
  3544 ;;		On exit  : 0/0
  3545 ;;		Unchanged: 0/0
  3546 ;; Data sizes:     COMMON   BANK0   BANK1   BANK3   BANK2
  3547 ;;      Params:         0       0       0       0       0
  3548 ;;      Locals:         1       0       0       0       0
  3549 ;;      Temps:          0       0       0       0       0
  3550 ;;      Totals:         1       0       0       0       0
  3551 ;;Total ram usage:        1 bytes
  3552 ;; Hardware stack levels used:    1
  3553 ;; This function calls:
  3554 ;;		Nothing
  3555 ;; This function is called by:
  3556 ;;		_printf
  3557 ;; This function uses a non-reentrant model
  3558 ;;
  3559                           
  3560                           
  3561                           ;psect for function _putch
  3562  0F28                     _putch:
  3563                           
  3564                           ;incstack = 0
  3565                           ; Regs used in _putch: [wreg]
  3566                           ;putch@data stored from wreg
  3567  0F28  00F0               	movwf	putch@data
  3568  0F29                     i1l1362:
  3569  0F29                     i1l255:	
  3570                           ;Proyecto02.c: 456:     while(TXIF == 0);
  3571                           
  3572  0F29  1283               	bcf	3,5	;RP0=0, select bank0
  3573  0F2A  1303               	bcf	3,6	;RP1=0, select bank0
  3574  0F2B  1E0C               	btfss	12,4	;volatile
  3575  0F2C  2F2E               	goto	u59_21
  3576  0F2D  2F2F               	goto	u59_20
  3577  0F2E                     u59_21:
  3578  0F2E  2F29               	goto	i1l255
  3579  0F2F                     u59_20:
  3580  0F2F                     i1l1364:
  3581                           
  3582                           ;Proyecto02.c: 457:     TXREG = data;
  3583  0F2F  0870               	movf	putch@data,w
  3584  0F30  0099               	movwf	25	;volatile
  3585  0F31                     i1l258:
  3586  0F31  0008               	return
  3587  0F32                     __end_of_putch:
  3588                           
  3589                           	psect	text9
  3590  05CB                     __ptext9:	
  3591 ;; *************** function _dedo1_3 *****************
  3592 ;; Defined at:
  3593 ;;		line 373 in file "Proyecto02.c"
  3594 ;; Parameters:    Size  Location     Type
  3595 ;;		None
  3596 ;; Auto vars:     Size  Location     Type
  3597 ;;		None
  3598 ;; Return value:  Size  Location     Type
  3599 ;;                  1    wreg      void 
  3600 ;; Registers used:
  3601 ;;		wreg
  3602 ;; Tracked objects:
  3603 ;;		On entry : 0/0
  3604 ;;		On exit  : 0/0
  3605 ;;		Unchanged: 0/0
  3606 ;; Data sizes:     COMMON   BANK0   BANK1   BANK3   BANK2
  3607 ;;      Params:         0       0       0       0       0
  3608 ;;      Locals:         0       0       0       0       0
  3609 ;;      Temps:          2       0       0       0       0
  3610 ;;      Totals:         2       0       0       0       0
  3611 ;;Total ram usage:        2 bytes
  3612 ;; Hardware stack levels used:    1
  3613 ;; This function calls:
  3614 ;;		Nothing
  3615 ;; This function is called by:
  3616 ;;		_isr
  3617 ;;		_menu
  3618 ;; This function uses a non-reentrant model
  3619 ;;
  3620                           
  3621                           
  3622                           ;psect for function _dedo1_3
  3623  05CB                     _dedo1_3:
  3624  05CB                     i1l1368:	
  3625                           ;incstack = 0
  3626                           ; Regs used in _dedo1_3: [wreg]
  3627                           
  3628                           
  3629                           ;Proyecto02.c: 374:     PORTDbits.RD0 = 1;
  3630  05CB  1283               	bcf	3,5	;RP0=0, select bank0
  3631  05CC  1303               	bcf	3,6	;RP1=0, select bank0
  3632  05CD  1408               	bsf	8,0	;volatile
  3633  05CE                     i1l1370:
  3634                           
  3635                           ;Proyecto02.c: 375:     _delay((unsigned long)((2)*(8000000/4000.0)));
  3636  05CE  3006               	movlw	6
  3637  05CF  00F1               	movwf	??_dedo1_3+1
  3638  05D0  3030               	movlw	48
  3639  05D1  00F0               	movwf	??_dedo1_3
  3640  05D2                     u142_27:
  3641  05D2  0BF0               	decfsz	??_dedo1_3,f
  3642  05D3  2DD2               	goto	u142_27
  3643  05D4  0BF1               	decfsz	??_dedo1_3+1,f
  3644  05D5  2DD2               	goto	u142_27
  3645  05D6  0000               	nop
  3646  05D7                     i1l1372:
  3647                           
  3648                           ;Proyecto02.c: 376:     PORTDbits.RD0 = 0;
  3649  05D7  1283               	bcf	3,5	;RP0=0, select bank0
  3650  05D8  1303               	bcf	3,6	;RP1=0, select bank0
  3651  05D9  1008               	bcf	8,0	;volatile
  3652                           
  3653                           ;Proyecto02.c: 377:     _delay((unsigned long)((18)*(8000000/4000.0)));
  3654  05DA  302F               	movlw	47
  3655  05DB  00F1               	movwf	??_dedo1_3+1
  3656  05DC  30BF               	movlw	191
  3657  05DD  00F0               	movwf	??_dedo1_3
  3658  05DE                     u143_27:
  3659  05DE  0BF0               	decfsz	??_dedo1_3,f
  3660  05DF  2DDE               	goto	u143_27
  3661  05E0  0BF1               	decfsz	??_dedo1_3+1,f
  3662  05E1  2DDE               	goto	u143_27
  3663  05E2  2DE3               	nop2
  3664  05E3                     i1l225:
  3665  05E3  0008               	return
  3666  05E4                     __end_of_dedo1_3:
  3667                           
  3668                           	psect	text10
  3669  05E4                     __ptext10:	
  3670 ;; *************** function _dedo1_1 *****************
  3671 ;; Defined at:
  3672 ;;		line 359 in file "Proyecto02.c"
  3673 ;; Parameters:    Size  Location     Type
  3674 ;;		None
  3675 ;; Auto vars:     Size  Location     Type
  3676 ;;		None
  3677 ;; Return value:  Size  Location     Type
  3678 ;;                  1    wreg      void 
  3679 ;; Registers used:
  3680 ;;		wreg
  3681 ;; Tracked objects:
  3682 ;;		On entry : 0/0
  3683 ;;		On exit  : 0/0
  3684 ;;		Unchanged: 0/0
  3685 ;; Data sizes:     COMMON   BANK0   BANK1   BANK3   BANK2
  3686 ;;      Params:         0       0       0       0       0
  3687 ;;      Locals:         0       0       0       0       0
  3688 ;;      Temps:          2       0       0       0       0
  3689 ;;      Totals:         2       0       0       0       0
  3690 ;;Total ram usage:        2 bytes
  3691 ;; Hardware stack levels used:    1
  3692 ;; This function calls:
  3693 ;;		Nothing
  3694 ;; This function is called by:
  3695 ;;		_isr
  3696 ;;		_menu
  3697 ;; This function uses a non-reentrant model
  3698 ;;
  3699                           
  3700                           
  3701                           ;psect for function _dedo1_1
  3702  05E4                     _dedo1_1:
  3703  05E4                     i1l1374:	
  3704                           ;incstack = 0
  3705                           ; Regs used in _dedo1_1: [wreg]
  3706                           
  3707                           
  3708                           ;Proyecto02.c: 360:     PORTDbits.RD0 = 1;
  3709  05E4  1283               	bcf	3,5	;RP0=0, select bank0
  3710  05E5  1303               	bcf	3,6	;RP1=0, select bank0
  3711  05E6  1408               	bsf	8,0	;volatile
  3712  05E7                     i1l1376:
  3713                           
  3714                           ;Proyecto02.c: 361:     _delay((unsigned long)((0.7)*(8000000/4000.0)));
  3715  05E7  30C7               	movlw	199
  3716  05E8  00F0               	movwf	??_dedo1_1
  3717  05E9                     u144_27:
  3718  05E9  2DEA               	nop2
  3719  05EA  2DEB               	nop2
  3720  05EB  0BF0               	decfsz	??_dedo1_1,f
  3721  05EC  2DE9               	goto	u144_27
  3722  05ED  2DEE               	nop2
  3723  05EE  2DEF               	nop2
  3724  05EF  2DF0               	nop2
  3725  05F0                     i1l1378:
  3726                           
  3727                           ;Proyecto02.c: 362:     PORTDbits.RD0 = 0;
  3728  05F0  1283               	bcf	3,5	;RP0=0, select bank0
  3729  05F1  1303               	bcf	3,6	;RP1=0, select bank0
  3730  05F2  1008               	bcf	8,0	;volatile
  3731                           
  3732                           ;Proyecto02.c: 363:     _delay((unsigned long)((19.3)*(8000000/4000.0)));
  3733  05F3  3033               	movlw	51
  3734  05F4  00F1               	movwf	??_dedo1_1+1
  3735  05F5  301F               	movlw	31
  3736  05F6  00F0               	movwf	??_dedo1_1
  3737  05F7                     u145_27:
  3738  05F7  0BF0               	decfsz	??_dedo1_1,f
  3739  05F8  2DF7               	goto	u145_27
  3740  05F9  0BF1               	decfsz	??_dedo1_1+1,f
  3741  05FA  2DF7               	goto	u145_27
  3742  05FB  2DFC               	nop2
  3743  05FC                     i1l219:
  3744  05FC  0008               	return
  3745  05FD                     __end_of_dedo1_1:
  3746                           
  3747                           	psect	text11
  3748  0FE7                     __ptext11:	
  3749 ;; *************** function _dedo3_3 *****************
  3750 ;; Defined at:
  3751 ;;		line 415 in file "Proyecto02.c"
  3752 ;; Parameters:    Size  Location     Type
  3753 ;;		None
  3754 ;; Auto vars:     Size  Location     Type
  3755 ;;		None
  3756 ;; Return value:  Size  Location     Type
  3757 ;;                  1    wreg      void 
  3758 ;; Registers used:
  3759 ;;		wreg
  3760 ;; Tracked objects:
  3761 ;;		On entry : 0/0
  3762 ;;		On exit  : 0/0
  3763 ;;		Unchanged: 0/0
  3764 ;; Data sizes:     COMMON   BANK0   BANK1   BANK3   BANK2
  3765 ;;      Params:         0       0       0       0       0
  3766 ;;      Locals:         0       0       0       0       0
  3767 ;;      Temps:          2       0       0       0       0
  3768 ;;      Totals:         2       0       0       0       0
  3769 ;;Total ram usage:        2 bytes
  3770 ;; Hardware stack levels used:    1
  3771 ;; This function calls:
  3772 ;;		Nothing
  3773 ;; This function is called by:
  3774 ;;		_isr
  3775 ;; This function uses a non-reentrant model
  3776 ;;
  3777                           
  3778                           
  3779                           ;psect for function _dedo3_3
  3780  0FE7                     _dedo3_3:
  3781  0FE7                     i1l1410:	
  3782                           ;incstack = 0
  3783                           ; Regs used in _dedo3_3: [wreg]
  3784                           
  3785                           
  3786                           ;Proyecto02.c: 416:     PORTDbits.RD2 = 1;
  3787  0FE7  1283               	bcf	3,5	;RP0=0, select bank0
  3788  0FE8  1303               	bcf	3,6	;RP1=0, select bank0
  3789  0FE9  1508               	bsf	8,2	;volatile
  3790  0FEA                     i1l1412:
  3791                           
  3792                           ;Proyecto02.c: 417:     _delay((unsigned long)((2)*(8000000/4000.0)));
  3793  0FEA  3006               	movlw	6
  3794  0FEB  00F1               	movwf	??_dedo3_3+1
  3795  0FEC  3030               	movlw	48
  3796  0FED  00F0               	movwf	??_dedo3_3
  3797  0FEE                     u146_27:
  3798  0FEE  0BF0               	decfsz	??_dedo3_3,f
  3799  0FEF  2FEE               	goto	u146_27
  3800  0FF0  0BF1               	decfsz	??_dedo3_3+1,f
  3801  0FF1  2FEE               	goto	u146_27
  3802  0FF2  0000               	nop
  3803  0FF3                     i1l1414:
  3804                           
  3805                           ;Proyecto02.c: 418:     PORTDbits.RD2 = 0;
  3806  0FF3  1283               	bcf	3,5	;RP0=0, select bank0
  3807  0FF4  1303               	bcf	3,6	;RP1=0, select bank0
  3808  0FF5  1108               	bcf	8,2	;volatile
  3809                           
  3810                           ;Proyecto02.c: 419:     _delay((unsigned long)((17)*(8000000/4000.0)));
  3811  0FF6  302D               	movlw	45
  3812  0FF7  00F1               	movwf	??_dedo3_3+1
  3813  0FF8  3026               	movlw	38
  3814  0FF9  00F0               	movwf	??_dedo3_3
  3815  0FFA                     u147_27:
  3816  0FFA  0BF0               	decfsz	??_dedo3_3,f
  3817  0FFB  2FFA               	goto	u147_27
  3818  0FFC  0BF1               	decfsz	??_dedo3_3+1,f
  3819  0FFD  2FFA               	goto	u147_27
  3820  0FFE  0000               	nop
  3821  0FFF                     i1l243:
  3822  0FFF  0008               	return
  3823  1000                     __end_of_dedo3_3:
  3824                           
  3825                           	psect	text12
  3826  0FCE                     __ptext12:	
  3827 ;; *************** function _dedo3_2 *****************
  3828 ;; Defined at:
  3829 ;;		line 408 in file "Proyecto02.c"
  3830 ;; Parameters:    Size  Location     Type
  3831 ;;		None
  3832 ;; Auto vars:     Size  Location     Type
  3833 ;;		None
  3834 ;; Return value:  Size  Location     Type
  3835 ;;                  1    wreg      void 
  3836 ;; Registers used:
  3837 ;;		wreg
  3838 ;; Tracked objects:
  3839 ;;		On entry : 0/0
  3840 ;;		On exit  : 0/0
  3841 ;;		Unchanged: 0/0
  3842 ;; Data sizes:     COMMON   BANK0   BANK1   BANK3   BANK2
  3843 ;;      Params:         0       0       0       0       0
  3844 ;;      Locals:         0       0       0       0       0
  3845 ;;      Temps:          2       0       0       0       0
  3846 ;;      Totals:         2       0       0       0       0
  3847 ;;Total ram usage:        2 bytes
  3848 ;; Hardware stack levels used:    1
  3849 ;; This function calls:
  3850 ;;		Nothing
  3851 ;; This function is called by:
  3852 ;;		_isr
  3853 ;; This function uses a non-reentrant model
  3854 ;;
  3855                           
  3856                           
  3857                           ;psect for function _dedo3_2
  3858  0FCE                     _dedo3_2:
  3859  0FCE                     i1l1416:	
  3860                           ;incstack = 0
  3861                           ; Regs used in _dedo3_2: [wreg]
  3862                           
  3863                           
  3864                           ;Proyecto02.c: 409:     PORTDbits.RD2 = 1;
  3865  0FCE  1283               	bcf	3,5	;RP0=0, select bank0
  3866  0FCF  1303               	bcf	3,6	;RP1=0, select bank0
  3867  0FD0  1508               	bsf	8,2	;volatile
  3868  0FD1                     i1l1418:
  3869                           
  3870                           ;Proyecto02.c: 410:     _delay((unsigned long)((1.5)*(8000000/4000.0)));
  3871  0FD1  3004               	movlw	4
  3872  0FD2  00F1               	movwf	??_dedo3_2+1
  3873  0FD3  30E4               	movlw	228
  3874  0FD4  00F0               	movwf	??_dedo3_2
  3875  0FD5                     u148_27:
  3876  0FD5  0BF0               	decfsz	??_dedo3_2,f
  3877  0FD6  2FD5               	goto	u148_27
  3878  0FD7  0BF1               	decfsz	??_dedo3_2+1,f
  3879  0FD8  2FD5               	goto	u148_27
  3880  0FD9  0000               	nop
  3881  0FDA                     i1l1420:
  3882                           
  3883                           ;Proyecto02.c: 411:     PORTDbits.RD2 = 0;
  3884  0FDA  1283               	bcf	3,5	;RP0=0, select bank0
  3885  0FDB  1303               	bcf	3,6	;RP1=0, select bank0
  3886  0FDC  1108               	bcf	8,2	;volatile
  3887                           
  3888                           ;Proyecto02.c: 412:     _delay((unsigned long)((18.5)*(8000000/4000.0)));
  3889  0FDD  3031               	movlw	49
  3890  0FDE  00F1               	movwf	??_dedo3_2+1
  3891  0FDF  300B               	movlw	11
  3892  0FE0  00F0               	movwf	??_dedo3_2
  3893  0FE1                     u149_27:
  3894  0FE1  0BF0               	decfsz	??_dedo3_2,f
  3895  0FE2  2FE1               	goto	u149_27
  3896  0FE3  0BF1               	decfsz	??_dedo3_2+1,f
  3897  0FE4  2FE1               	goto	u149_27
  3898  0FE5  2FE6               	nop2
  3899  0FE6                     i1l240:
  3900  0FE6  0008               	return
  3901  0FE7                     __end_of_dedo3_2:
  3902                           
  3903                           	psect	text13
  3904  0FB5                     __ptext13:	
  3905 ;; *************** function _dedo3_1 *****************
  3906 ;; Defined at:
  3907 ;;		line 401 in file "Proyecto02.c"
  3908 ;; Parameters:    Size  Location     Type
  3909 ;;		None
  3910 ;; Auto vars:     Size  Location     Type
  3911 ;;		None
  3912 ;; Return value:  Size  Location     Type
  3913 ;;                  1    wreg      void 
  3914 ;; Registers used:
  3915 ;;		wreg
  3916 ;; Tracked objects:
  3917 ;;		On entry : 0/0
  3918 ;;		On exit  : 0/0
  3919 ;;		Unchanged: 0/0
  3920 ;; Data sizes:     COMMON   BANK0   BANK1   BANK3   BANK2
  3921 ;;      Params:         0       0       0       0       0
  3922 ;;      Locals:         0       0       0       0       0
  3923 ;;      Temps:          2       0       0       0       0
  3924 ;;      Totals:         2       0       0       0       0
  3925 ;;Total ram usage:        2 bytes
  3926 ;; Hardware stack levels used:    1
  3927 ;; This function calls:
  3928 ;;		Nothing
  3929 ;; This function is called by:
  3930 ;;		_isr
  3931 ;; This function uses a non-reentrant model
  3932 ;;
  3933                           
  3934                           
  3935                           ;psect for function _dedo3_1
  3936  0FB5                     _dedo3_1:
  3937  0FB5                     i1l1422:	
  3938                           ;incstack = 0
  3939                           ; Regs used in _dedo3_1: [wreg]
  3940                           
  3941                           
  3942                           ;Proyecto02.c: 402:     PORTDbits.RD2 = 1;
  3943  0FB5  1283               	bcf	3,5	;RP0=0, select bank0
  3944  0FB6  1303               	bcf	3,6	;RP1=0, select bank0
  3945  0FB7  1508               	bsf	8,2	;volatile
  3946  0FB8                     i1l1424:
  3947                           
  3948                           ;Proyecto02.c: 403:     _delay((unsigned long)((0.7)*(8000000/4000.0)));
  3949  0FB8  30C7               	movlw	199
  3950  0FB9  00F0               	movwf	??_dedo3_1
  3951  0FBA                     u150_27:
  3952  0FBA  2FBB               	nop2
  3953  0FBB  2FBC               	nop2
  3954  0FBC  0BF0               	decfsz	??_dedo3_1,f
  3955  0FBD  2FBA               	goto	u150_27
  3956  0FBE  2FBF               	nop2
  3957  0FBF  2FC0               	nop2
  3958  0FC0  2FC1               	nop2
  3959  0FC1                     i1l1426:
  3960                           
  3961                           ;Proyecto02.c: 404:     PORTDbits.RD2 = 0;
  3962  0FC1  1283               	bcf	3,5	;RP0=0, select bank0
  3963  0FC2  1303               	bcf	3,6	;RP1=0, select bank0
  3964  0FC3  1108               	bcf	8,2	;volatile
  3965                           
  3966                           ;Proyecto02.c: 405:     _delay((unsigned long)((19.3)*(8000000/4000.0)));
  3967  0FC4  3033               	movlw	51
  3968  0FC5  00F1               	movwf	??_dedo3_1+1
  3969  0FC6  301F               	movlw	31
  3970  0FC7  00F0               	movwf	??_dedo3_1
  3971  0FC8                     u151_27:
  3972  0FC8  0BF0               	decfsz	??_dedo3_1,f
  3973  0FC9  2FC8               	goto	u151_27
  3974  0FCA  0BF1               	decfsz	??_dedo3_1+1,f
  3975  0FCB  2FC8               	goto	u151_27
  3976  0FCC  2FCD               	nop2
  3977  0FCD                     i1l237:
  3978  0FCD  0008               	return
  3979  0FCE                     __end_of_dedo3_1:
  3980                           
  3981                           	psect	text14
  3982  0F9C                     __ptext14:	
  3983 ;; *************** function _dedo2_3 *****************
  3984 ;; Defined at:
  3985 ;;		line 394 in file "Proyecto02.c"
  3986 ;; Parameters:    Size  Location     Type
  3987 ;;		None
  3988 ;; Auto vars:     Size  Location     Type
  3989 ;;		None
  3990 ;; Return value:  Size  Location     Type
  3991 ;;                  1    wreg      void 
  3992 ;; Registers used:
  3993 ;;		wreg
  3994 ;; Tracked objects:
  3995 ;;		On entry : 0/0
  3996 ;;		On exit  : 0/0
  3997 ;;		Unchanged: 0/0
  3998 ;; Data sizes:     COMMON   BANK0   BANK1   BANK3   BANK2
  3999 ;;      Params:         0       0       0       0       0
  4000 ;;      Locals:         0       0       0       0       0
  4001 ;;      Temps:          2       0       0       0       0
  4002 ;;      Totals:         2       0       0       0       0
  4003 ;;Total ram usage:        2 bytes
  4004 ;; Hardware stack levels used:    1
  4005 ;; This function calls:
  4006 ;;		Nothing
  4007 ;; This function is called by:
  4008 ;;		_isr
  4009 ;; This function uses a non-reentrant model
  4010 ;;
  4011                           
  4012                           
  4013                           ;psect for function _dedo2_3
  4014  0F9C                     _dedo2_3:
  4015  0F9C                     i1l1392:	
  4016                           ;incstack = 0
  4017                           ; Regs used in _dedo2_3: [wreg]
  4018                           
  4019                           
  4020                           ;Proyecto02.c: 395:     PORTDbits.RD1 = 1;
  4021  0F9C  1283               	bcf	3,5	;RP0=0, select bank0
  4022  0F9D  1303               	bcf	3,6	;RP1=0, select bank0
  4023  0F9E  1488               	bsf	8,1	;volatile
  4024  0F9F                     i1l1394:
  4025                           
  4026                           ;Proyecto02.c: 396:     _delay((unsigned long)((2)*(8000000/4000.0)));
  4027  0F9F  3006               	movlw	6
  4028  0FA0  00F1               	movwf	??_dedo2_3+1
  4029  0FA1  3030               	movlw	48
  4030  0FA2  00F0               	movwf	??_dedo2_3
  4031  0FA3                     u152_27:
  4032  0FA3  0BF0               	decfsz	??_dedo2_3,f
  4033  0FA4  2FA3               	goto	u152_27
  4034  0FA5  0BF1               	decfsz	??_dedo2_3+1,f
  4035  0FA6  2FA3               	goto	u152_27
  4036  0FA7  0000               	nop
  4037  0FA8                     i1l1396:
  4038                           
  4039                           ;Proyecto02.c: 397:     PORTDbits.RD1 = 0;
  4040  0FA8  1283               	bcf	3,5	;RP0=0, select bank0
  4041  0FA9  1303               	bcf	3,6	;RP1=0, select bank0
  4042  0FAA  1088               	bcf	8,1	;volatile
  4043                           
  4044                           ;Proyecto02.c: 398:     _delay((unsigned long)((17)*(8000000/4000.0)));
  4045  0FAB  302D               	movlw	45
  4046  0FAC  00F1               	movwf	??_dedo2_3+1
  4047  0FAD  3026               	movlw	38
  4048  0FAE  00F0               	movwf	??_dedo2_3
  4049  0FAF                     u153_27:
  4050  0FAF  0BF0               	decfsz	??_dedo2_3,f
  4051  0FB0  2FAF               	goto	u153_27
  4052  0FB1  0BF1               	decfsz	??_dedo2_3+1,f
  4053  0FB2  2FAF               	goto	u153_27
  4054  0FB3  0000               	nop
  4055  0FB4                     i1l234:
  4056  0FB4  0008               	return
  4057  0FB5                     __end_of_dedo2_3:
  4058                           
  4059                           	psect	text15
  4060  0F83                     __ptext15:	
  4061 ;; *************** function _dedo2_2 *****************
  4062 ;; Defined at:
  4063 ;;		line 387 in file "Proyecto02.c"
  4064 ;; Parameters:    Size  Location     Type
  4065 ;;		None
  4066 ;; Auto vars:     Size  Location     Type
  4067 ;;		None
  4068 ;; Return value:  Size  Location     Type
  4069 ;;                  1    wreg      void 
  4070 ;; Registers used:
  4071 ;;		wreg
  4072 ;; Tracked objects:
  4073 ;;		On entry : 0/0
  4074 ;;		On exit  : 0/0
  4075 ;;		Unchanged: 0/0
  4076 ;; Data sizes:     COMMON   BANK0   BANK1   BANK3   BANK2
  4077 ;;      Params:         0       0       0       0       0
  4078 ;;      Locals:         0       0       0       0       0
  4079 ;;      Temps:          2       0       0       0       0
  4080 ;;      Totals:         2       0       0       0       0
  4081 ;;Total ram usage:        2 bytes
  4082 ;; Hardware stack levels used:    1
  4083 ;; This function calls:
  4084 ;;		Nothing
  4085 ;; This function is called by:
  4086 ;;		_isr
  4087 ;; This function uses a non-reentrant model
  4088 ;;
  4089                           
  4090                           
  4091                           ;psect for function _dedo2_2
  4092  0F83                     _dedo2_2:
  4093  0F83                     i1l1398:	
  4094                           ;incstack = 0
  4095                           ; Regs used in _dedo2_2: [wreg]
  4096                           
  4097                           
  4098                           ;Proyecto02.c: 388:     PORTDbits.RD1 = 1;
  4099  0F83  1283               	bcf	3,5	;RP0=0, select bank0
  4100  0F84  1303               	bcf	3,6	;RP1=0, select bank0
  4101  0F85  1488               	bsf	8,1	;volatile
  4102  0F86                     i1l1400:
  4103                           
  4104                           ;Proyecto02.c: 389:     _delay((unsigned long)((1.5)*(8000000/4000.0)));
  4105  0F86  3004               	movlw	4
  4106  0F87  00F1               	movwf	??_dedo2_2+1
  4107  0F88  30E4               	movlw	228
  4108  0F89  00F0               	movwf	??_dedo2_2
  4109  0F8A                     u154_27:
  4110  0F8A  0BF0               	decfsz	??_dedo2_2,f
  4111  0F8B  2F8A               	goto	u154_27
  4112  0F8C  0BF1               	decfsz	??_dedo2_2+1,f
  4113  0F8D  2F8A               	goto	u154_27
  4114  0F8E  0000               	nop
  4115  0F8F                     i1l1402:
  4116                           
  4117                           ;Proyecto02.c: 390:     PORTDbits.RD1 = 0;
  4118  0F8F  1283               	bcf	3,5	;RP0=0, select bank0
  4119  0F90  1303               	bcf	3,6	;RP1=0, select bank0
  4120  0F91  1088               	bcf	8,1	;volatile
  4121                           
  4122                           ;Proyecto02.c: 391:     _delay((unsigned long)((18.5)*(8000000/4000.0)));
  4123  0F92  3031               	movlw	49
  4124  0F93  00F1               	movwf	??_dedo2_2+1
  4125  0F94  300B               	movlw	11
  4126  0F95  00F0               	movwf	??_dedo2_2
  4127  0F96                     u155_27:
  4128  0F96  0BF0               	decfsz	??_dedo2_2,f
  4129  0F97  2F96               	goto	u155_27
  4130  0F98  0BF1               	decfsz	??_dedo2_2+1,f
  4131  0F99  2F96               	goto	u155_27
  4132  0F9A  2F9B               	nop2
  4133  0F9B                     i1l231:
  4134  0F9B  0008               	return
  4135  0F9C                     __end_of_dedo2_2:
  4136                           
  4137                           	psect	text16
  4138  0F6A                     __ptext16:	
  4139 ;; *************** function _dedo2_1 *****************
  4140 ;; Defined at:
  4141 ;;		line 380 in file "Proyecto02.c"
  4142 ;; Parameters:    Size  Location     Type
  4143 ;;		None
  4144 ;; Auto vars:     Size  Location     Type
  4145 ;;		None
  4146 ;; Return value:  Size  Location     Type
  4147 ;;                  1    wreg      void 
  4148 ;; Registers used:
  4149 ;;		wreg
  4150 ;; Tracked objects:
  4151 ;;		On entry : 0/0
  4152 ;;		On exit  : 0/0
  4153 ;;		Unchanged: 0/0
  4154 ;; Data sizes:     COMMON   BANK0   BANK1   BANK3   BANK2
  4155 ;;      Params:         0       0       0       0       0
  4156 ;;      Locals:         0       0       0       0       0
  4157 ;;      Temps:          2       0       0       0       0
  4158 ;;      Totals:         2       0       0       0       0
  4159 ;;Total ram usage:        2 bytes
  4160 ;; Hardware stack levels used:    1
  4161 ;; This function calls:
  4162 ;;		Nothing
  4163 ;; This function is called by:
  4164 ;;		_isr
  4165 ;; This function uses a non-reentrant model
  4166 ;;
  4167                           
  4168                           
  4169                           ;psect for function _dedo2_1
  4170  0F6A                     _dedo2_1:
  4171  0F6A                     i1l1404:	
  4172                           ;incstack = 0
  4173                           ; Regs used in _dedo2_1: [wreg]
  4174                           
  4175                           
  4176                           ;Proyecto02.c: 381:     PORTDbits.RD1 = 1;
  4177  0F6A  1283               	bcf	3,5	;RP0=0, select bank0
  4178  0F6B  1303               	bcf	3,6	;RP1=0, select bank0
  4179  0F6C  1488               	bsf	8,1	;volatile
  4180  0F6D                     i1l1406:
  4181                           
  4182                           ;Proyecto02.c: 382:     _delay((unsigned long)((0.7)*(8000000/4000.0)));
  4183  0F6D  30C7               	movlw	199
  4184  0F6E  00F0               	movwf	??_dedo2_1
  4185  0F6F                     u156_27:
  4186  0F6F  2F70               	nop2
  4187  0F70  2F71               	nop2
  4188  0F71  0BF0               	decfsz	??_dedo2_1,f
  4189  0F72  2F6F               	goto	u156_27
  4190  0F73  2F74               	nop2
  4191  0F74  2F75               	nop2
  4192  0F75  2F76               	nop2
  4193  0F76                     i1l1408:
  4194                           
  4195                           ;Proyecto02.c: 383:     PORTDbits.RD1 = 0;
  4196  0F76  1283               	bcf	3,5	;RP0=0, select bank0
  4197  0F77  1303               	bcf	3,6	;RP1=0, select bank0
  4198  0F78  1088               	bcf	8,1	;volatile
  4199                           
  4200                           ;Proyecto02.c: 384:     _delay((unsigned long)((19.3)*(8000000/4000.0)));
  4201  0F79  3033               	movlw	51
  4202  0F7A  00F1               	movwf	??_dedo2_1+1
  4203  0F7B  301F               	movlw	31
  4204  0F7C  00F0               	movwf	??_dedo2_1
  4205  0F7D                     u157_27:
  4206  0F7D  0BF0               	decfsz	??_dedo2_1,f
  4207  0F7E  2F7D               	goto	u157_27
  4208  0F7F  0BF1               	decfsz	??_dedo2_1+1,f
  4209  0F80  2F7D               	goto	u157_27
  4210  0F81  2F82               	nop2
  4211  0F82                     i1l228:
  4212  0F82  0008               	return
  4213  0F83                     __end_of_dedo2_1:
  4214                           
  4215                           	psect	text17
  4216  0F51                     __ptext17:	
  4217 ;; *************** function _dedo1_2 *****************
  4218 ;; Defined at:
  4219 ;;		line 366 in file "Proyecto02.c"
  4220 ;; Parameters:    Size  Location     Type
  4221 ;;		None
  4222 ;; Auto vars:     Size  Location     Type
  4223 ;;		None
  4224 ;; Return value:  Size  Location     Type
  4225 ;;                  1    wreg      void 
  4226 ;; Registers used:
  4227 ;;		wreg
  4228 ;; Tracked objects:
  4229 ;;		On entry : 0/0
  4230 ;;		On exit  : 0/0
  4231 ;;		Unchanged: 0/0
  4232 ;; Data sizes:     COMMON   BANK0   BANK1   BANK3   BANK2
  4233 ;;      Params:         0       0       0       0       0
  4234 ;;      Locals:         0       0       0       0       0
  4235 ;;      Temps:          2       0       0       0       0
  4236 ;;      Totals:         2       0       0       0       0
  4237 ;;Total ram usage:        2 bytes
  4238 ;; Hardware stack levels used:    1
  4239 ;; This function calls:
  4240 ;;		Nothing
  4241 ;; This function is called by:
  4242 ;;		_isr
  4243 ;; This function uses a non-reentrant model
  4244 ;;
  4245                           
  4246                           
  4247                           ;psect for function _dedo1_2
  4248  0F51                     _dedo1_2:
  4249  0F51                     i1l1386:	
  4250                           ;incstack = 0
  4251                           ; Regs used in _dedo1_2: [wreg]
  4252                           
  4253                           
  4254                           ;Proyecto02.c: 367:     PORTDbits.RD0 = 1;
  4255  0F51  1283               	bcf	3,5	;RP0=0, select bank0
  4256  0F52  1303               	bcf	3,6	;RP1=0, select bank0
  4257  0F53  1408               	bsf	8,0	;volatile
  4258  0F54                     i1l1388:
  4259                           
  4260                           ;Proyecto02.c: 368:     _delay((unsigned long)((1.5)*(8000000/4000.0)));
  4261  0F54  3004               	movlw	4
  4262  0F55  00F1               	movwf	??_dedo1_2+1
  4263  0F56  30E4               	movlw	228
  4264  0F57  00F0               	movwf	??_dedo1_2
  4265  0F58                     u158_27:
  4266  0F58  0BF0               	decfsz	??_dedo1_2,f
  4267  0F59  2F58               	goto	u158_27
  4268  0F5A  0BF1               	decfsz	??_dedo1_2+1,f
  4269  0F5B  2F58               	goto	u158_27
  4270  0F5C  0000               	nop
  4271  0F5D                     i1l1390:
  4272                           
  4273                           ;Proyecto02.c: 369:     PORTDbits.RD0 = 0;
  4274  0F5D  1283               	bcf	3,5	;RP0=0, select bank0
  4275  0F5E  1303               	bcf	3,6	;RP1=0, select bank0
  4276  0F5F  1008               	bcf	8,0	;volatile
  4277                           
  4278                           ;Proyecto02.c: 370:     _delay((unsigned long)((18.5)*(8000000/4000.0)));
  4279  0F60  3031               	movlw	49
  4280  0F61  00F1               	movwf	??_dedo1_2+1
  4281  0F62  300B               	movlw	11
  4282  0F63  00F0               	movwf	??_dedo1_2
  4283  0F64                     u159_27:
  4284  0F64  0BF0               	decfsz	??_dedo1_2,f
  4285  0F65  2F64               	goto	u159_27
  4286  0F66  0BF1               	decfsz	??_dedo1_2+1,f
  4287  0F67  2F64               	goto	u159_27
  4288  0F68  2F69               	nop2
  4289  0F69                     i1l222:
  4290  0F69  0008               	return
  4291  0F6A                     __end_of_dedo1_2:
  4292  007E                     btemp	set	126	;btemp
  4293  007E                     wtemp0	set	126
  4294                           
  4295                           	psect	config
  4296                           
  4297                           ;Config register CONFIG1 @ 0x2007
  4298                           ;	Oscillator Selection bits
  4299                           ;	FOSC = INTRC_NOCLKOUT, INTOSCIO oscillator: I/O function on RA6/OSC2/CLKOUT pin, I/O f
      +                          unction on RA7/OSC1/CLKIN
  4300                           ;	Watchdog Timer Enable bit
  4301                           ;	WDTE = OFF, WDT disabled and can be enabled by SWDTEN bit of the WDTCON register
  4302                           ;	Power-up Timer Enable bit
  4303                           ;	PWRTE = OFF, PWRT disabled
  4304                           ;	RE3/MCLR pin function select bit
  4305                           ;	MCLRE = OFF, RE3/MCLR pin function is digital input, MCLR internally tied to VDD
  4306                           ;	Code Protection bit
  4307                           ;	CP = OFF, Program memory code protection is disabled
  4308                           ;	Data Code Protection bit
  4309                           ;	CPD = OFF, Data memory code protection is disabled
  4310                           ;	Brown Out Reset Selection bits
  4311                           ;	BOREN = OFF, BOR disabled
  4312                           ;	Internal External Switchover bit
  4313                           ;	IESO = OFF, Internal/External Switchover mode is disabled
  4314                           ;	Fail-Safe Clock Monitor Enabled bit
  4315                           ;	FCMEN = OFF, Fail-Safe Clock Monitor is disabled
  4316                           ;	Low Voltage Programming Enable bit
  4317                           ;	LVP = OFF, RB3 pin has digital I/O, HV on MCLR must be used for programming
  4318                           ;	In-Circuit Debugger Mode bit
  4319                           ;	DEBUG = 0x1, unprogrammed default
  4320  2007                     	org	8199
  4321  2007  20D4               	dw	8404
  4322                           
  4323                           ;Config register CONFIG2 @ 0x2008
  4324                           ;	Brown-out Reset Selection bit
  4325                           ;	BOR4V = BOR40V, Brown-out Reset set to 4.0V
  4326                           ;	Flash Program Memory Self Write Enable bits
  4327                           ;	WRT = OFF, Write protection off
  4328  2008                     	org	8200
  4329  2008  3FFF               	dw	16383

Data Sizes:
    Strings     351
    Constant    0
    Data        0
    BSS         24
    Persistent  0
    Stack       0

Auto Spaces:
    Space          Size  Autos    Used
    COMMON           14     11      14
    BANK0            80      8      29
    BANK1            80      0       0
    BANK3            96      0       0
    BANK2            96      0       0

Pointer List with Targets:

    printf@f	PTR const unsigned char  size(2) Largest target is 42
		 -> STR_15(CODE[9]), STR_14(CODE[9]), STR_13(CODE[19]), STR_12(CODE[24]), 
		 -> STR_11(CODE[20]), STR_10(CODE[20]), STR_9(CODE[20]), STR_8(CODE[20]), 
		 -> STR_7(CODE[20]), STR_6(CODE[27]), STR_5(CODE[27]), STR_4(CODE[24]), 
		 -> STR_3(CODE[33]), STR_2(CODE[42]), STR_1(CODE[37]), 

    printf@ap	PTR void [1] size(1) Largest target is 2
		 -> ?_printf(COMMON[2]), 


Critical Paths under _main in COMMON

    None.

Critical Paths under _isr in COMMON

    _isr->_menu
    _menu->_printf
    _printf->_putch

Critical Paths under _main in BANK0

    _main->_chanel
    _main->_setup

Critical Paths under _isr in BANK0

    None.

Critical Paths under _main in BANK1

    None.

Critical Paths under _isr in BANK1

    None.

Critical Paths under _main in BANK3

    None.

Critical Paths under _isr in BANK3

    None.

Critical Paths under _main in BANK2

    None.

Critical Paths under _isr in BANK2

    None.

Call Graph Tables:

 ---------------------------------------------------------------------------------
 (Depth) Function   	        Calls       Base Space   Used Autos Params    Refs
 ---------------------------------------------------------------------------------
 (0) _main                                                 0     0      0       0
                             _chanel
                              _setup
 ---------------------------------------------------------------------------------
 (1) _setup                                                1     1      0       0
                                              7 BANK0      1     1      0
 ---------------------------------------------------------------------------------
 (1) _chanel                                               1     1      0       0
                                              7 BANK0      1     1      0
 ---------------------------------------------------------------------------------
 Estimated maximum stack depth 1
 ---------------------------------------------------------------------------------
 (Depth) Function   	        Calls       Base Space   Used Autos Params    Refs
 ---------------------------------------------------------------------------------
 (2) _isr                                                  7     7      0    1677
                                              0 BANK0      7     7      0
                            _dedo1_1
                            _dedo1_2
                            _dedo1_3
                            _dedo2_1
                            _dedo2_2
                            _dedo2_3
                            _dedo3_1
                            _dedo3_2
                            _dedo3_3
                               _menu
                        _read_eeprom
                       _write_eeprom
 ---------------------------------------------------------------------------------
 (3) _write_eeprom                                         2     1      1     424
                                              0 COMMON     2     1      1
 ---------------------------------------------------------------------------------
 (3) _read_eeprom                                          3     3      0      45
                                              0 COMMON     3     3      0
 ---------------------------------------------------------------------------------
 (3) _menu                                                 3     3      0    1208
                                              8 COMMON     3     3      0
                            _dedo1_1
                            _dedo1_3
                             _printf
 ---------------------------------------------------------------------------------
 (4) _printf                                              19    17      2    1208
                                              1 COMMON     7     5      2
                              _putch
 ---------------------------------------------------------------------------------
 (5) _putch                                                1     1      0      22
                                              0 COMMON     1     1      0
 ---------------------------------------------------------------------------------
 (4) _dedo1_3                                              2     2      0       0
                                              0 COMMON     2     2      0
 ---------------------------------------------------------------------------------
 (4) _dedo1_1                                              2     2      0       0
                                              0 COMMON     2     2      0
 ---------------------------------------------------------------------------------
 (3) _dedo3_3                                              2     2      0       0
                                              0 COMMON     2     2      0
 ---------------------------------------------------------------------------------
 (3) _dedo3_2                                              2     2      0       0
                                              0 COMMON     2     2      0
 ---------------------------------------------------------------------------------
 (3) _dedo3_1                                              2     2      0       0
                                              0 COMMON     2     2      0
 ---------------------------------------------------------------------------------
 (3) _dedo2_3                                              2     2      0       0
                                              0 COMMON     2     2      0
 ---------------------------------------------------------------------------------
 (3) _dedo2_2                                              2     2      0       0
                                              0 COMMON     2     2      0
 ---------------------------------------------------------------------------------
 (3) _dedo2_1                                              2     2      0       0
                                              0 COMMON     2     2      0
 ---------------------------------------------------------------------------------
 (3) _dedo1_2                                              2     2      0       0
                                              0 COMMON     2     2      0
 ---------------------------------------------------------------------------------
 Estimated maximum stack depth 5
 ---------------------------------------------------------------------------------

 Call Graph Graphs:

 _main (ROOT)
   _chanel
   _setup

 _isr (ROOT)
   _dedo1_1
   _dedo1_2
   _dedo1_3
   _dedo2_1
   _dedo2_2
   _dedo2_3
   _dedo3_1
   _dedo3_2
   _dedo3_3
   _menu
     _dedo1_1
     _dedo1_3
     _printf
       _putch
   _read_eeprom
   _write_eeprom

 Address spaces:
Name               Size   Autos  Total    Cost      Usage
BITCOMMON            E      0       0       0        0.0%
EEDATA             100      0       0       0        0.0%
NULL                 0      0       0       0        0.0%
CODE                 0      0       0       0        0.0%
COMMON               E      B       E       1      100.0%
BITSFR0              0      0       0       1        0.0%
SFR0                 0      0       0       1        0.0%
BITSFR1              0      0       0       2        0.0%
SFR1                 0      0       0       2        0.0%
STACK                0      0       0       2        0.0%
ABS                  0      0      2B       3        0.0%
BITBANK0            50      0       0       4        0.0%
BITSFR3              0      0       0       4        0.0%
SFR3                 0      0       0       4        0.0%
BANK0               50      8      1D       5       36.2%
BITSFR2              0      0       0       5        0.0%
SFR2                 0      0       0       5        0.0%
BITBANK1            50      0       0       6        0.0%
BANK1               50      0       0       7        0.0%
BITBANK3            60      0       0       8        0.0%
BANK3               60      0       0       9        0.0%
BITBANK2            60      0       0      10        0.0%
BANK2               60      0       0      11        0.0%
DATA                 0      0      2B      12        0.0%


Microchip Technology PIC Macro Assembler V2.31 build 20201012212115 
Symbol Table                                                                                   Fri Jun 04 01:16:20 2021

                      pc 0002                       fsr 0004                      l200 07BB  
                    l210 059A                      l202 07BF                      l203 07DA  
                    l216 05A4                      l194 0F37                      _PR2 0092  
                    u800 0589                      u801 0588                      u810 0597  
                    u811 0596                      u750 07BF                      u751 07BE  
                    u760 0556                      u761 0555                      u770 055F  
                    u771 055E                      u780 056D                      u781 056C  
                    u790 057B                      u791 057A                      _isr 0025  
                    _var 007B                      fsr0 0004                      indf 0000  
                   l1600 0785                     l1610 078C                     l1602 0786  
                   l1620 0795                     l1612 078F                     l1604 0787  
                   l1630 07A3                     l1622 0797                     l1614 0790  
                   l1606 0788                     l1550 0764                     l1640 07AF  
                   l1632 07A4                     l1624 079E                     l1616 0793  
                   l1608 0789                     l1560 076B                     l1552 0767  
                   l1650 07BA                     l1642 07B3                     l1634 07A5  
                   l1626 07A1                     l1618 0794                     l1570 0770  
                   l1562 076C                     l1554 0768                     l1546 075F  
                   l1660 07D2                     l1652 07C9                     l1644 07B5  
                   l1636 07A7                     l1628 07A2                     l1580 0777  
                   l1572 0771                     l1564 076D                     l1556 0769  
                   l1548 0763                     l1670 0556                     l1662 07D3  
                   l1654 07CD                     l1646 07B7                     l1638 07AB  
                   l1590 0780                     l1582 0778                     l1574 0772  
                   l1566 076E                     l1558 076A                     l1680 057B  
                   l1672 055F                     l1664 07D6                     l1656 07CE  
                   l1648 07B8                     l1592 0781                     l1584 0779  
                   l1576 0773                     l1568 076F                     l1682 0580  
                   l1690 059A                     l1674 0564                     l1666 07D9  
                   l1658 07D1                     l1594 0782                     l1586 077C  
                   l1578 0776                     l1692 05A1                     l1684 0589  
                   l1676 056D                     l1668 0550                     l1596 0783  
                   l1588 077E                     l1836 0F32                     l1686 058E  
                   l1678 0572                     l1598 0784                     l1688 0597  
                   ?_isr 0070                     STR_1 062A                     STR_2 0600  
                   STR_3 064F                     STR_4 06BE                     STR_5 068B  
                   STR_6 0670                     STR_7 06D6                     STR_8 06EA  
                   STR_9 06FE                     u1177 079B                     u1187 059E  
                   _RBIF 0058                     _RCIF 0065                     _TXIF 0064  
                   _dato 007D                     _main 0F32                     _var1 0032  
                   _var2 0030                     _menu 0334                     btemp 007E  
                   start 0012                    ??_isr 0035                    ?_main 0070  
                  ?_menu 0070                    _EEADR 010D                    STR_10 0712  
                  _EEDAT 010C                    STR_11 0726                    STR_12 06A6  
                  STR_13 073A                    STR_14 074D                    STR_15 0756  
                  _ANSEL 0188                    i1l222 0F69                    i1l231 0F9B  
                  i1l240 0FE6                    i1l225 05E3                    i1l234 0FB4  
                  i1l243 0FFF                    i1l219 05FC                    i1l171 02BF  
                  i1l155 015F                    i1l228 0F82                    i1l252 0F50  
                  i1l237 0FCD                    i1l261 03A2                    i1l181 0326  
        __end_of_dedo1_1 05FD                    i1l246 07EC                    i1l182 030D  
        __end_of_dedo1_2 0F6A                    i1l255 0F29          __end_of_dedo1_3 05E4  
                  i1l248 07F2                    i1l184 0324                    i1l265 043F  
                  i1l249 07F6          __end_of_dedo2_1 0F83                    i1l258 0F31  
                  i1l282 054F          __end_of_dedo2_2 0F9C          __end_of_dedo2_3 0FB5  
                  i1l276 0539                    i1l189 0327          __end_of_dedo3_1 0FCE  
        __end_of_dedo3_2 0FE7          __end_of_dedo3_3 1000                    i1l376 05CA  
                  _RCREG 001A                    _SPBRG 0099                    _PORTA 0005  
                  _PORTB 0006                    _PORTC 0007                    _PORTD 0008  
                  u60_20 05CA                    u60_21 05C9                    u61_20 07F2  
                  u61_21 07F1                    u70_20 04E6                    u62_20 03A8  
                  u70_21 04E5                    u62_21 03A7                    u71_20 04F7  
                  u63_20 03AE                    u71_21 04F6                    u63_21 03AD  
                  u72_20 053F                    u64_20 0445                    u72_21 053E  
                  u64_21 0444                    u73_20 0545                    u65_20 044B  
                  u73_21 0544                    u65_21 044A                    u74_20 054E  
                  u66_20 046A                    u90_20 00B4                    u82_20 0029  
                  u74_21 054D                    u66_21 0469                    u90_21 00B3  
                  u82_21 0028                    u59_20 0F2F                    u67_20 0489  
                  u91_20 00C8                    u83_20 0032                    u59_21 0F2E  
                  u67_21 0488                    u91_21 00C7                    u83_21 0031  
                  u91_25 00C4                    u68_20 04A8                    u92_20 00DC  
                  u84_20 0049                    u68_21 04A7                    u92_21 00DB  
                  u84_21 0048                    u92_25 00D8                    u69_20 04C7  
                  u93_20 00EB                    u85_20 0060                    u69_21 04C6  
                  u93_21 00EA                    u85_21 005F                    u93_25 00E7  
                  u94_20 00FF                    u86_20 0074                    u94_21 00FE  
                  u86_21 0073                    u94_25 00FB                    u86_25 0070  
                  u95_20 010E                    u87_20 0086                    u95_21 010D  
                  u87_21 0085                    u87_25 0082                    u96_20 0122  
                  u88_20 0093                    u96_21 0121                    u88_21 0092  
                  u96_25 011E                    u88_25 008F                    u97_20 0136  
                  u89_20 00A5                    u97_21 0135                    u89_21 00A4  
                  _TXREG 0019                    u97_25 0132                    u89_25 00A1  
                  u98_20 0145                    u98_21 0144                    u98_25 0141  
                  u99_20 0159                    u99_21 0158                    u99_25 0155  
           ?_read_eeprom 0070                    _setup 075F                    _putch 0F28  
                  pclath 000A                    status 0003                    wtemp0 007E  
        __initialization 0015             __end_of_main 0F40             __end_of_menu 0550  
  __size_of_write_eeprom 001C                   ??_main 003D                   ??_menu 0078  
                 _ADRESH 001E                   _EEDATA 010C                   _CCPR1L 0015  
                 _CCPR2L 001B                   _EECON2 018D                   ?_setup 0070  
                 ?_putch 0070                   _ANSELH 0189                   u100_20 016D  
                 u100_21 016C                   u101_20 0171                   u101_21 0170  
                 u110_20 0270                   u102_20 01DA                   u110_21 026F  
                 u102_21 01D9                   u110_25 026C                   u102_25 01D6  
                 i1l1400 0F86                   u111_20 0284                   u103_20 01EE  
                 u111_21 0283                   u103_21 01ED                   i1l1402 0F8F  
                 i1l1410 0FE7                   i1l1404 0F6A                   i1l1420 0FDA  
                 i1l1412 0FEA                   i1l1500 048E                   u111_25 0280  
                 u103_25 01EA                   i1l1406 0F6D                   i1l1422 0FB5  
                 i1l1414 0FF3                   i1l1510 04BA                   i1l1502 049B  
                 i1l1430 0F45                   i1l1408 0F76                   i1l1424 0FB8  
                 i1l1416 0FCE                   i1l1512 04BF                   i1l1504 04A0  
                 i1l1520 04DE                   i1l1432 0F48                   i1l1440 07E3  
                 u112_20 0293                   u104_20 01FD                   u112_21 0292  
                 u104_21 01FC                   i1l1426 0FC1                   i1l1418 0FD1  
                 i1l1370 05CE                   i1l1362 0F29                   i1l1530 050D  
                 i1l1522 04E6                   i1l1514 04C7                   i1l1506 04A8  
                 i1l1450 034A                   i1l1442 07E6                   i1l1372 05D7  
                 i1l1364 0F2F                   i1l1380 05A5                   i1l1540 0548  
                 i1l1532 0523                   i1l1524 04EF                   i1l1516 04CC  
                 i1l1508 04AD                   i1l1460 03A8                   i1l1452 0360  
                 i1l1428 0F41                   i1l1444 07EB                   i1l1436 07DC  
                 i1l1700 0038                   u112_25 028F                   u104_25 01F9  
                 i1l1390 0F5D                   i1l1374 05E4                   i1l1382 05AA  
                 i1l1542 054F                   i1l1534 052C                   i1l1526 04F7  
                 i1l1518 04D9                   i1l1470 03E7                   i1l1462 03AE  
                 i1l1454 036D                   i1l1446 0334                   i1l1438 07E2  
                 i1l1710 0060                   i1l1702 0040                   u120_27 02B4  
                 i1l1392 0F9C                   i1l1376 05E7                   i1l1368 05CB  
                 i1l1384 05B0                   i1l1536 053F                   i1l1528 0500  
                 i1l1480 0445                   i1l1472 03FD                   i1l1464 03BB  
                 i1l1456 0383                   i1l1448 0341                   u113_20 02A7  
                 i1l1800 0248                   u105_20 0211                   i1l1720 0093  
                 i1l1712 0067                   i1l1704 0049                   u113_21 02A6  
                 u105_21 0210                   i1l1386 0F51                   i1l1394 0F9F  
                 i1l1378 05F0                   i1l1538 0545                   i1l1490 046A  
                 i1l1482 044B                   i1l1474 0406                   i1l1466 03C4  
                 i1l1458 038C                   i1l1810 0275                   i1l1802 024D  
                 i1l1730 00BB                   i1l1722 0098                   i1l1714 0074  
                 i1l1706 004F                   i1l1388 0F54                   i1l1396 0FA8  
                 i1l1492 046F                   i1l1484 0450                   i1l1476 041C  
                 i1l1468 03DA                   i1l1820 02AC                   i1l1812 0284  
                 i1l1804 025C                   i1l1740 00F0                   i1l1732 00C8  
                 i1l1724 00A5                   i1l1716 0079                   i1l1708 0057  
                 u113_25 02A3                   u105_25 020D                   i1l1398 0F83  
                 i1l1494 047C                   i1l1486 045D                   i1l1478 0429  
                 i1l1830 0311                   i1l1822 02BB                   i1l1814 0293  
                 i1l1806 0261                   i1l1750 0122                   i1l1742 00FF  
                 i1l1734 00CD                   i1l1718 0086                   i1l1726 00AB  
                 u121_27 0306                   i1l1496 0481                   i1l1488 0462  
                 i1l1832 0316                   i1l1824 02C3                   u114_20 02C3  
                 i1l1816 0298                   i1l1808 0270                   u106_20 0225  
                 i1l1760 0159                   i1l1752 0127                   i1l1736 00DC  
                 i1l1728 00B4                   i1l1744 0105                   u114_21 02C2  
                 u106_21 0224                   i1l1498 0489                   i1l1834 031B  
                 i1l1826 02C4                   i1l1818 02A7                   i1l1770 0171  
                 i1l1754 0136                   i1l1746 010E                   i1l1738 00EB  
                 i1l1762 015F                   i1l1828 02FE                   i1l1780 01DA  
                 i1l1772 0173                   i1l1764 0166                   i1l1756 0145  
                 i1l1748 0115                   u106_25 0221                   i1l1790 0211  
                 i1l1782 01DF                   i1l1774 01B9                   i1l1758 014A  
                 i1l1766 0169                   i1l1694 0025                   u130_27 03F6  
                 u122_27 033A                   u115_20 0311                   u107_20 0239  
                 i1l1792 0216                   i1l1784 01EE                   i1l1776 01C3  
                 i1l1768 016D                   i1l1696 0029                   u115_21 0310  
                 u107_21 0238                   i1l1794 0225                   i1l1786 01FD  
                 i1l1778 01CD                   i1l1698 0032                   i1l1796 022A  
                 i1l1788 0202                   u107_25 0235                   i1l1798 0239  
                 u131_27 040C                   u123_27 0350                   u116_20 0323  
                 u108_20 0248                   u116_21 0322                   u108_21 0247  
                 u108_25 0244                   u140_27 051C                   u132_27 0422  
                 u124_27 0366                   u109_20 025C                   u109_21 025B  
                 u109_25 0258                   u141_27 0532                   u133_27 0438  
                 u125_27 037C                   u150_27 0FBA                   u142_27 05D2  
                 u134_27 0456                   u126_27 0392                   u151_27 0FC8  
                 u143_27 05DE                   u135_27 0475                   u127_27 03B4  
                 u119_27 0163                   u152_27 0FA3                   u144_27 05E9  
                 u136_27 0494                   u128_27 03CA                   u153_27 0FAF  
                 u145_27 05F7                   u137_27 04B3                   u129_27 03E0  
                 u154_27 0F8A                   u146_27 0FEE                   u138_27 04D2  
                 u155_27 0F96                   u147_27 0FFA                   u139_27 0506  
                 u156_27 0F6F                   u148_27 0FD5                   u157_27 0F7D  
                 u149_27 0FE1                   u158_27 0F58                   u159_27 0F64  
                 _SPBRGH 009A             _write_eeprom 07DB                   _chanel 0550  
              ??_dedo1_1 0070                ??_dedo1_2 0070                ??_dedo1_3 0070  
              ??_dedo2_1 0070                ??_dedo2_2 0070                ??_dedo2_3 0070  
              ??_dedo3_1 0070                ??_dedo3_2 0070                ??_dedo3_3 0070  
                 _printf 05A5                   saved_w 007E  __end_of__initialization 0021  
         __pcstackCOMMON 0070            __end_of_setup 07DB            __end_of_putch 0F32  
         _OPTION_REGbits 0081     __size_of_read_eeprom 0011                  ??_setup 003C  
                ??_putch 0070               __pbssBANK0 0020     read_eeprom@direccion 0071  
             __pmaintext 0F32                  ?_chanel 0070               __pintentry 0004  
                ?_printf 0071         write_eeprom@dato 0071               __stringtab 0800  
             _lectura_01 002C               _lectura_02 002A               _lectura_03 0028  
             _lectura_04 0026               _lectura_05 0024          __size_of_chanel 0055  
                _dedo1_1 05E4                  _dedo1_2 0F51                  _dedo1_3 05CB  
                _dedo2_1 0F6A                  _dedo2_2 0F83                  _dedo2_3 0F9C  
                _dedo3_1 0FB5                  _dedo3_2 0FCE                  _dedo3_3 0FE7  
                __ptext1 075F                  __ptext2 0550                  __ptext3 0025  
                __ptext4 07DB                  __ptext5 0F40                  __ptext6 0334  
                __ptext7 05A5                  __ptext8 0F28                  __ptext9 05CB  
        __size_of_printf 0026                _T2CONbits 0012             __size_of_isr 030F  
                clrloop0 07F8     end_of_initialization 0021                _RCSTAbits 0018  
                printf@c 0077                  printf@f 0071             __pstringtext 0600  
              _PORTBbits 0006                _PORTDbits 0008                _TRISAbits 0085  
              _TRISBbits 0086                _TRISCbits 0087                _TRISDbits 0088  
            _CCP1CONbits 0017              _CCP2CONbits 001D                _TXSTAbits 0098  
         __end_of_chanel 05A5              _BAUDCTLbits 0187           __end_of_printf 05CB  
    start_initialization 0015              __end_of_isr 0334                 ??_chanel 003C  
               ??_printf 0073              __pbssCOMMON 007B            ??_read_eeprom 0070  
              ___latbits 0002            __pcstackBANK0 0035                _flag_uart 002E  
               ?_dedo1_1 0070                _direccion 0034                 ?_dedo1_2 0070  
               ?_dedo1_3 0070                 ?_dedo2_1 0070                 ?_dedo2_2 0070  
               ?_dedo2_3 0070                 ?_dedo3_1 0070                 ?_dedo3_2 0070  
               ?_dedo3_3 0070                __pstrings 0800           __size_of_setup 007C  
         __size_of_putch 000A      __end_of_read_eeprom 0F51        interrupt_function 0004  
               _IOCBbits 0096                clear_ram0 07F7                 _PIE1bits 008C  
          ?_write_eeprom 0070          read_eeprom@dato 0072                 _PIR1bits 000C  
               _PIR2bits 000D               _ADCON0bits 001F              __stringbase 0812  
             _ADCON1bits 009F                 _WPUBbits 0095           ??_write_eeprom 0071  
             _EECON1bits 018C         __size_of_dedo1_1 0019         __size_of_dedo1_2 0019  
       __size_of_dedo1_3 0019         __size_of_dedo2_1 0019         __size_of_dedo2_2 0019  
       __size_of_dedo2_3 0019         __size_of_dedo3_1 0019         __size_of_dedo3_2 0019  
       __size_of_dedo3_3 0019       __end_of__stringtab 0812              _read_eeprom 0F40  
               __ptext10 05E4                 __ptext11 0FE7                 __ptext12 0FCE  
               __ptext13 0FB5                 __ptext14 0F9C                 __ptext15 0F83  
               __ptext16 0F6A                 __ptext17 0F51                 _lec_pwm1 0022  
               _lec_pwm2 0020            __size_of_main 000E            __size_of_menu 021C  
              putch@data 0070               _INTCONbits 000B                 intlevel1 0000  
              stringcode 080A               _OSCCONbits 008F                 printf@ap 0076  
  write_eeprom@direccion 0070     __end_of_write_eeprom 07F7                 stringtab 0800  
